Archive member included to satisfy reference by file (symbol)

../../../libs\libasr.a(asr_top_outside_port.o)
                              build/objs/command_info.o (symbol from plugin) (asrtop_asr_system_create_model)
../../../libs\libasr.a(decoder_inner_port_rpmsg.o)
                              build/objs/main.o (symbol from plugin) (decoder_task_init_port)
../../../libs\libasr.a(decoder_manage.o)
                              decoder_inner_port_rpmsg.o (symbol from plugin) (model_parameter_info_clear)
../../../libs\libasr.a(dynmic_confidence.o)
                              build/objs/system_msg_deal.o (symbol from plugin) (dynmic_confidence_config)
../../../libs\libasr.a(dnn_outside_port.o)
                              decoder_manage.o (symbol from plugin) (get_dnn_version)
../../../libs\libasr.a(flash_manage_outside_port.o)
                              build/objs/ci_flash_data_info.o (symbol from plugin) (is_flash_power_off)
../../../libs\libasr.a(vad_fe_outside_port.o)
                              decoder_manage.o (symbol from plugin) (cmvn_update_mean_var_config)
../../../libs\libasr.a(asr_dealwith_result.o)
                              decoder_manage.o (symbol from plugin) (sg_wakeup_oneshot_able)
../../../libs\libasr.a(asrbest_result.o)
                              decoder_manage.o (symbol from plugin) (asrbest_result_init)
../../../libs\libasr.a(cmp_twice_confidence.o)
                              decoder_manage.o (symbol from plugin) (cmp_twice_init)
../../../libs\libasr.a(decide_result.o)
                              decoder_manage.o (symbol from plugin) (decide_init)
../../../libs\libnewlib_port.a(sbrk.o)
                              build/objs/platform_config.o (symbol from plugin) (sbrk)
../../../libs\libfreertos_port.a(port.o)
                              build/objs/event_groups.o (symbol from plugin) (vPortSetMSIPInt)
../../../libs\libfreertos_port.a(portasm.o)
                              port.o (symbol from plugin) (vPortYield)
../../../libs\libdsu.a(ci130x_dsu.o)
                              build/objs/main.o (symbol from plugin) (dsu_init)
../../../libs\libdsu.a(ci130x_mailbox.o)
                              build/objs/platform_config.o (symbol from plugin) (mailbox_preinit)
../../../libs\libdsu.a(ci130x_scu.o)
                              build/objs/ci130x_init.o (symbol from plugin) (scu_unlock_system_config)
../../../libs\libdsu.a(ci130x_efuse.o)
                              ci130x_dsu.o (symbol from plugin) (efuse_unlock)
../../../libs\libdsu.a(ci130x_dpmu.o)
                              build/objs/ci130x_init.o (symbol from plugin) (dpmu_unlock_cfg_config)
../../../libs\libdsu.a(ci130x_nuclear_com.o)
                              build/objs/flash_control_inner_port.o (symbol from plugin) (nuclear_com_registe_serve)
../../../libs\libdsu.a(remote_api_for_host.o)
                              build/objs/main.o (symbol from plugin) (rc_caller_set_ssp_registe)
../../../libs\libcwsl.a(ci_cwsl_voice.o)
                              build/objs/asr_process_callback_decoder.o (symbol from plugin) (deal_cwsl_cmd)
../../../libs\libcwsl.a(cwsl_manage.o)
                              build/objs/cwsl_app_sample1.o (symbol from plugin) (cwsl_set_wordinfo)
../../../libs\libcwsl.a(cwsl_template_manager.o)
                              cwsl_manage.o (symbol from plugin) (cwsl_tm_init)
../../../libs\libcwsl.a(cwsl_algorithm.o)
                              cwsl_manage.o (symbol from plugin) (nn_output_callback)
../../../libs\libcikd_asrBc.a(cikd_decoder.o)
                              ci_cwsl_voice.o (symbol from plugin) (get_nbest_result)
c:/riscv-nuclei-elf-gcc-9.2.0/gcc_fix_raissrc/bin/../lib/gcc/riscv-nuclei-elf/9.2.0/rv32imafc/ilp32f\libgcc.a(save-restore.o)
                              ../../../libs\libnewlib_port.a(sbrk.o) (__riscv_save_4)
c:/riscv-nuclei-elf-gcc-9.2.0/gcc_fix_raissrc/bin/../lib/gcc/riscv-nuclei-elf/9.2.0/../../../../riscv-nuclei-elf/lib/rv32imafc/ilp32f\libg_nano.a(lib_a-atexit.o)
                              build/objs/ci130x_startup.o (atexit)
c:/riscv-nuclei-elf-gcc-9.2.0/gcc_fix_raissrc/bin/../lib/gcc/riscv-nuclei-elf/9.2.0/../../../../riscv-nuclei-elf/lib/rv32imafc/ilp32f\libg_nano.a(lib_a-exit.o)
                              build/objs/ci130x_startup.o (exit)
c:/riscv-nuclei-elf-gcc-9.2.0/gcc_fix_raissrc/bin/../lib/gcc/riscv-nuclei-elf/9.2.0/../../../../riscv-nuclei-elf/lib/rv32imafc/ilp32f\libg_nano.a(lib_a-fini.o)
                              build/objs/ci130x_startup.o (__libc_fini_array)
c:/riscv-nuclei-elf-gcc-9.2.0/gcc_fix_raissrc/bin/../lib/gcc/riscv-nuclei-elf/9.2.0/../../../../riscv-nuclei-elf/lib/rv32imafc/ilp32f\libg_nano.a(lib_a-impure.o)
                              c:/riscv-nuclei-elf-gcc-9.2.0/gcc_fix_raissrc/bin/../lib/gcc/riscv-nuclei-elf/9.2.0/../../../../riscv-nuclei-elf/lib/rv32imafc/ilp32f\libg_nano.a(lib_a-exit.o) (_global_impure_ptr)
c:/riscv-nuclei-elf-gcc-9.2.0/gcc_fix_raissrc/bin/../lib/gcc/riscv-nuclei-elf/9.2.0/../../../../riscv-nuclei-elf/lib/rv32imafc/ilp32f\libg_nano.a(lib_a-init.o)
                              build/objs/ci130x_startup.o (__libc_init_array)
c:/riscv-nuclei-elf-gcc-9.2.0/gcc_fix_raissrc/bin/../lib/gcc/riscv-nuclei-elf/9.2.0/../../../../riscv-nuclei-elf/lib/rv32imafc/ilp32f\libg_nano.a(lib_a-rand.o)
                              build/objs/command_info.o (symbol from plugin) (rand)
c:/riscv-nuclei-elf-gcc-9.2.0/gcc_fix_raissrc/bin/../lib/gcc/riscv-nuclei-elf/9.2.0/../../../../riscv-nuclei-elf/lib/rv32imafc/ilp32f\libg_nano.a(lib_a-__atexit.o)
                              c:/riscv-nuclei-elf-gcc-9.2.0/gcc_fix_raissrc/bin/../lib/gcc/riscv-nuclei-elf/9.2.0/../../../../riscv-nuclei-elf/lib/rv32imafc/ilp32f\libg_nano.a(lib_a-atexit.o) (__register_exitproc)
c:/riscv-nuclei-elf-gcc-9.2.0/gcc_fix_raissrc/bin/../lib/gcc/riscv-nuclei-elf/9.2.0/../../../../riscv-nuclei-elf/lib/rv32imafc/ilp32f\libg_nano.a(lib_a-__call_atexit.o)
                              c:/riscv-nuclei-elf-gcc-9.2.0/gcc_fix_raissrc/bin/../lib/gcc/riscv-nuclei-elf/9.2.0/../../../../riscv-nuclei-elf/lib/rv32imafc/ilp32f\libg_nano.a(lib_a-__atexit.o) (__call_exitprocs)
c:/riscv-nuclei-elf-gcc-9.2.0/gcc_fix_raissrc/bin/../lib/gcc/riscv-nuclei-elf/9.2.0/../../../../riscv-nuclei-elf/lib/rv32imafc/ilp32f\libgloss_nano.a(sys_exit.o)
                              c:/riscv-nuclei-elf-gcc-9.2.0/gcc_fix_raissrc/bin/../lib/gcc/riscv-nuclei-elf/9.2.0/../../../../riscv-nuclei-elf/lib/rv32imafc/ilp32f\libg_nano.a(lib_a-exit.o) (_exit)
c:/riscv-nuclei-elf-gcc-9.2.0/gcc_fix_raissrc/bin/../lib/gcc/riscv-nuclei-elf/9.2.0/../../../../riscv-nuclei-elf/lib/rv32imafc/ilp32f\libc_nano.a(lib_a-errno.o)
                              c:/riscv-nuclei-elf-gcc-9.2.0/gcc_fix_raissrc/bin/../lib/gcc/riscv-nuclei-elf/9.2.0/../../../../riscv-nuclei-elf/lib/rv32imafc/ilp32f\libgloss_nano.a(sys_exit.o) (__errno)
c:/riscv-nuclei-elf-gcc-9.2.0/gcc_fix_raissrc/bin/../lib/gcc/riscv-nuclei-elf/9.2.0/rv32imafc/ilp32f\libgcc.a(gedf2.o)
                              C:\Users\cmshe\AppData\Local\Temp\cwsl_A_sample.elf.eOOQKS.ltrans2.ltrans.o (__gtdf2)
c:/riscv-nuclei-elf-gcc-9.2.0/gcc_fix_raissrc/bin/../lib/gcc/riscv-nuclei-elf/9.2.0/rv32imafc/ilp32f\libgcc.a(ledf2.o)
                              C:\Users\cmshe\AppData\Local\Temp\cwsl_A_sample.elf.eOOQKS.ltrans2.ltrans.o (__ltdf2)
c:/riscv-nuclei-elf-gcc-9.2.0/gcc_fix_raissrc/bin/../lib/gcc/riscv-nuclei-elf/9.2.0/rv32imafc/ilp32f\libgcc.a(extendsfdf2.o)
                              C:\Users\cmshe\AppData\Local\Temp\cwsl_A_sample.elf.eOOQKS.ltrans2.ltrans.o (__extendsfdf2)
c:/riscv-nuclei-elf-gcc-9.2.0/gcc_fix_raissrc/bin/../lib/gcc/riscv-nuclei-elf/9.2.0/rv32imafc/ilp32f\libgcc.a(_clzsi2.o)
                              c:/riscv-nuclei-elf-gcc-9.2.0/gcc_fix_raissrc/bin/../lib/gcc/riscv-nuclei-elf/9.2.0/rv32imafc/ilp32f\libgcc.a(extendsfdf2.o) (__clzsi2)
c:/riscv-nuclei-elf-gcc-9.2.0/gcc_fix_raissrc/bin/../lib/gcc/riscv-nuclei-elf/9.2.0/rv32imafc/ilp32f\libgcc.a(_clz.o)
                              c:/riscv-nuclei-elf-gcc-9.2.0/gcc_fix_raissrc/bin/../lib/gcc/riscv-nuclei-elf/9.2.0/rv32imafc/ilp32f\libgcc.a(_clzsi2.o) (__clz_tab)
c:/riscv-nuclei-elf-gcc-9.2.0/gcc_fix_raissrc/bin/../lib/gcc/riscv-nuclei-elf/9.2.0/../../../../riscv-nuclei-elf/lib/rv32imafc/ilp32f\libg_nano.a(lib_a-strchr.o)
                              C:\Users\cmshe\AppData\Local\Temp\cwsl_A_sample.elf.eOOQKS.ltrans0.ltrans.o (strchr)

Discarded input sections

 .text          0x0000000000000000        0x0 C:\Users\cmshe\AppData\Local\Temp\cwsl_A_sample.elf.eOOQKS.ltrans0.ltrans.o
 .data          0x0000000000000000        0x0 C:\Users\cmshe\AppData\Local\Temp\cwsl_A_sample.elf.eOOQKS.ltrans0.ltrans.o
 .bss           0x0000000000000000        0x0 C:\Users\cmshe\AppData\Local\Temp\cwsl_A_sample.elf.eOOQKS.ltrans0.ltrans.o
 .sbss.sg_states_size.lto_priv.0
                0x0000000000000000        0x4 C:\Users\cmshe\AppData\Local\Temp\cwsl_A_sample.elf.eOOQKS.ltrans0.ltrans.o
 .sdata2.sg_base_confidence.lto_priv.0
                0x0000000000000000        0x2 C:\Users\cmshe\AppData\Local\Temp\cwsl_A_sample.elf.eOOQKS.ltrans0.ltrans.o
 .sdata2.sg_play_device_index
                0x0000000000000000        0x4 C:\Users\cmshe\AppData\Local\Temp\cwsl_A_sample.elf.eOOQKS.ltrans0.ltrans.o
 .text          0x0000000000000000        0x0 C:\Users\cmshe\AppData\Local\Temp\cwsl_A_sample.elf.eOOQKS.ltrans1.ltrans.o
 .data          0x0000000000000000        0x0 C:\Users\cmshe\AppData\Local\Temp\cwsl_A_sample.elf.eOOQKS.ltrans1.ltrans.o
 .bss           0x0000000000000000        0x0 C:\Users\cmshe\AppData\Local\Temp\cwsl_A_sample.elf.eOOQKS.ltrans1.ltrans.o
 .text.IISxDMA_TADDR1.part.0
                0x0000000000000000       0x38 C:\Users\cmshe\AppData\Local\Temp\cwsl_A_sample.elf.eOOQKS.ltrans1.ltrans.o
 .text          0x0000000000000000        0x0 C:\Users\cmshe\AppData\Local\Temp\cwsl_A_sample.elf.eOOQKS.ltrans2.ltrans.o
 .data          0x0000000000000000        0x0 C:\Users\cmshe\AppData\Local\Temp\cwsl_A_sample.elf.eOOQKS.ltrans2.ltrans.o
 .bss           0x0000000000000000        0x0 C:\Users\cmshe\AppData\Local\Temp\cwsl_A_sample.elf.eOOQKS.ltrans2.ltrans.o
 .rodata._exit.str1.4
                0x0000000000000000       0x26 C:\Users\cmshe\AppData\Local\Temp\cwsl_A_sample.elf.eOOQKS.ltrans2.ltrans.o
 .text._exit    0x0000000000000000       0x3e C:\Users\cmshe\AppData\Local\Temp\cwsl_A_sample.elf.eOOQKS.ltrans2.ltrans.o
 .bss.tmp       0x0000000000000000       0x20 C:\Users\cmshe\AppData\Local\Temp\cwsl_A_sample.elf.eOOQKS.ltrans2.ltrans.o
 .sbss.adc_cha0_int_flag
                0x0000000000000000        0x1 C:\Users\cmshe\AppData\Local\Temp\cwsl_A_sample.elf.eOOQKS.ltrans2.ltrans.o
 .sbss.adc_cha1_int_flag
                0x0000000000000000        0x1 C:\Users\cmshe\AppData\Local\Temp\cwsl_A_sample.elf.eOOQKS.ltrans2.ltrans.o
 .sbss.adc_cha2_int_flag
                0x0000000000000000        0x1 C:\Users\cmshe\AppData\Local\Temp\cwsl_A_sample.elf.eOOQKS.ltrans2.ltrans.o
 .sbss.adc_cha3_int_flag
                0x0000000000000000        0x1 C:\Users\cmshe\AppData\Local\Temp\cwsl_A_sample.elf.eOOQKS.ltrans2.ltrans.o
 .sbss.adc_cha4_int_flag
                0x0000000000000000        0x1 C:\Users\cmshe\AppData\Local\Temp\cwsl_A_sample.elf.eOOQKS.ltrans2.ltrans.o
 .sbss.adc_cha5_int_flag
                0x0000000000000000        0x1 C:\Users\cmshe\AppData\Local\Temp\cwsl_A_sample.elf.eOOQKS.ltrans2.ltrans.o
 .sbss.d1_max   0x0000000000000000        0x4 C:\Users\cmshe\AppData\Local\Temp\cwsl_A_sample.elf.eOOQKS.ltrans2.ltrans.o
 .sbss.d2_max   0x0000000000000000        0x4 C:\Users\cmshe\AppData\Local\Temp\cwsl_A_sample.elf.eOOQKS.ltrans2.ltrans.o
 .sbss.g_scu_int
                0x0000000000000000        0x1 C:\Users\cmshe\AppData\Local\Temp\cwsl_A_sample.elf.eOOQKS.ltrans2.ltrans.o
 .sbss.sg_dnn_psram_transfer_sram_done
                0x0000000000000000        0x1 C:\Users\cmshe\AppData\Local\Temp\cwsl_A_sample.elf.eOOQKS.ltrans2.ltrans.o
 .sbss.uart_dma_trans_done
                0x0000000000000000        0x1 C:\Users\cmshe\AppData\Local\Temp\cwsl_A_sample.elf.eOOQKS.ltrans2.ltrans.o
 .sbss.vad_fe_rpmsg_wait_state
                0x0000000000000000        0x4 C:\Users\cmshe\AppData\Local\Temp\cwsl_A_sample.elf.eOOQKS.ltrans2.ltrans.o
 .sdata2.__FUNCTION__.3941
                0x0000000000000000        0x6 C:\Users\cmshe\AppData\Local\Temp\cwsl_A_sample.elf.eOOQKS.ltrans2.ltrans.o
 .comment       0x0000000000000000       0x12 C:\Users\cmshe\AppData\Local\Temp\ccqaTf3A.debug.temp.o
 .comment       0x0000000000000000       0x12 C:\Users\cmshe\AppData\Local\Temp\ccSSPpPA.debug.temp.o
 .comment       0x0000000000000000       0x12 C:\Users\cmshe\AppData\Local\Temp\cckBMzBA.debug.temp.o
 .comment       0x0000000000000000       0x12 C:\Users\cmshe\AppData\Local\Temp\ccI16h9z.debug.temp.o
 .comment       0x0000000000000000       0x12 C:\Users\cmshe\AppData\Local\Temp\cc6rr0Gz.debug.temp.o
 .debug_info    0x0000000000000000      0x92d C:\Users\cmshe\AppData\Local\Temp\ccIJt9iz.debug.temp.o
 .debug_abbrev  0x0000000000000000      0x1b1 C:\Users\cmshe\AppData\Local\Temp\ccIJt9iz.debug.temp.o
 .debug_line    0x0000000000000000      0x162 C:\Users\cmshe\AppData\Local\Temp\ccIJt9iz.debug.temp.o
 .debug_str     0x0000000000000000      0x637 C:\Users\cmshe\AppData\Local\Temp\ccIJt9iz.debug.temp.o
 .comment       0x0000000000000000       0x12 C:\Users\cmshe\AppData\Local\Temp\ccIJt9iz.debug.temp.o
 .comment       0x0000000000000000       0x12 C:\Users\cmshe\AppData\Local\Temp\ccOUa3hz.debug.temp.o
 .debug_info    0x0000000000000000      0x91a C:\Users\cmshe\AppData\Local\Temp\ccU5RWgz.debug.temp.o
 .debug_abbrev  0x0000000000000000      0x1b1 C:\Users\cmshe\AppData\Local\Temp\ccU5RWgz.debug.temp.o
 .debug_line    0x0000000000000000      0x10f C:\Users\cmshe\AppData\Local\Temp\ccU5RWgz.debug.temp.o
 .debug_str     0x0000000000000000      0x62a C:\Users\cmshe\AppData\Local\Temp\ccU5RWgz.debug.temp.o
 .comment       0x0000000000000000       0x12 C:\Users\cmshe\AppData\Local\Temp\ccU5RWgz.debug.temp.o
 .comment       0x0000000000000000       0x12 C:\Users\cmshe\AppData\Local\Temp\ccqu1Qkz.debug.temp.o
 .comment       0x0000000000000000       0x12 C:\Users\cmshe\AppData\Local\Temp\ccWSaLoz.debug.temp.o
 .comment       0x0000000000000000       0x12 C:\Users\cmshe\AppData\Local\Temp\ccs9lMez.debug.temp.o
 .debug_info    0x0000000000000000     0x1b1b C:\Users\cmshe\AppData\Local\Temp\ccYpxN4y.debug.temp.o
 .debug_abbrev  0x0000000000000000      0x2b5 C:\Users\cmshe\AppData\Local\Temp\ccYpxN4y.debug.temp.o
 .debug_line    0x0000000000000000      0x2ac C:\Users\cmshe\AppData\Local\Temp\ccYpxN4y.debug.temp.o
 .debug_str     0x0000000000000000     0x1091 C:\Users\cmshe\AppData\Local\Temp\ccYpxN4y.debug.temp.o
 .comment       0x0000000000000000       0x12 C:\Users\cmshe\AppData\Local\Temp\ccYpxN4y.debug.temp.o
 .comment       0x0000000000000000       0x12 C:\Users\cmshe\AppData\Local\Temp\ccEnMGYy.debug.temp.o
 .comment       0x0000000000000000       0x12 C:\Users\cmshe\AppData\Local\Temp\ccgT5E4x.debug.temp.o
 .comment       0x0000000000000000       0x12 C:\Users\cmshe\AppData\Local\Temp\cc4cQ3ex.debug.temp.o
 .comment       0x0000000000000000       0x12 C:\Users\cmshe\AppData\Local\Temp\ccIvymrw.debug.temp.o
 .comment       0x0000000000000000       0x12 C:\Users\cmshe\AppData\Local\Temp\ccmOgFDv.debug.temp.o
 .comment       0x0000000000000000       0x12 C:\Users\cmshe\AppData\Local\Temp\cc06YXPu.debug.temp.o
 .debug_info    0x0000000000000000      0xdd8 C:\Users\cmshe\AppData\Local\Temp\ccWcWxSt.debug.temp.o
 .debug_abbrev  0x0000000000000000      0x254 C:\Users\cmshe\AppData\Local\Temp\ccWcWxSt.debug.temp.o
 .debug_line    0x0000000000000000      0x274 C:\Users\cmshe\AppData\Local\Temp\ccWcWxSt.debug.temp.o
 .debug_str     0x0000000000000000      0xbd4 C:\Users\cmshe\AppData\Local\Temp\ccWcWxSt.debug.temp.o
 .comment       0x0000000000000000       0x12 C:\Users\cmshe\AppData\Local\Temp\ccWcWxSt.debug.temp.o
 .comment       0x0000000000000000       0x12 C:\Users\cmshe\AppData\Local\Temp\ccSiT7Us.debug.temp.o
 .comment       0x0000000000000000       0x12 C:\Users\cmshe\AppData\Local\Temp\ccOoQHXr.debug.temp.o
 .comment       0x0000000000000000       0x12 C:\Users\cmshe\AppData\Local\Temp\ccKuNh0q.debug.temp.o
 .comment       0x0000000000000000       0x12 C:\Users\cmshe\AppData\Local\Temp\ccGAKR2p.debug.temp.o
 .comment       0x0000000000000000       0x12 C:\Users\cmshe\AppData\Local\Temp\ccCGHr5o.debug.temp.o
 .comment       0x0000000000000000       0x12 C:\Users\cmshe\AppData\Local\Temp\cc6Jgcls.debug.temp.o
 .comment       0x0000000000000000       0x12 C:\Users\cmshe\AppData\Local\Temp\ccANPWAv.debug.temp.o
 .comment       0x0000000000000000       0x12 C:\Users\cmshe\AppData\Local\Temp\cc4QoHQy.debug.temp.o
 .comment       0x0000000000000000       0x12 C:\Users\cmshe\AppData\Local\Temp\ccyUXr6B.debug.temp.o
 .comment       0x0000000000000000       0x12 C:\Users\cmshe\AppData\Local\Temp\ccUrqUaF.debug.temp.o
 .comment       0x0000000000000000       0x12 C:\Users\cmshe\AppData\Local\Temp\ccgZSmfI.debug.temp.o
 .debug_info    0x0000000000000000     0x138f C:\Users\cmshe\AppData\Local\Temp\ccCwlPjL.debug.temp.o
 .debug_abbrev  0x0000000000000000      0x250 C:\Users\cmshe\AppData\Local\Temp\ccCwlPjL.debug.temp.o
 .debug_line    0x0000000000000000      0x263 C:\Users\cmshe\AppData\Local\Temp\ccCwlPjL.debug.temp.o
 .debug_str     0x0000000000000000      0xba0 C:\Users\cmshe\AppData\Local\Temp\ccCwlPjL.debug.temp.o
 .comment       0x0000000000000000       0x12 C:\Users\cmshe\AppData\Local\Temp\ccCwlPjL.debug.temp.o
 .debug_info    0x0000000000000000     0x181e C:\Users\cmshe\AppData\Local\Temp\ccY3NhoO.debug.temp.o
 .debug_abbrev  0x0000000000000000      0x2c8 C:\Users\cmshe\AppData\Local\Temp\ccY3NhoO.debug.temp.o
 .debug_line    0x0000000000000000      0x27c C:\Users\cmshe\AppData\Local\Temp\ccY3NhoO.debug.temp.o
 .debug_str     0x0000000000000000      0xf40 C:\Users\cmshe\AppData\Local\Temp\ccY3NhoO.debug.temp.o
 .comment       0x0000000000000000       0x12 C:\Users\cmshe\AppData\Local\Temp\ccY3NhoO.debug.temp.o
 .debug_info    0x0000000000000000      0xba7 C:\Users\cmshe\AppData\Local\Temp\cckBgKsR.debug.temp.o
 .debug_abbrev  0x0000000000000000      0x263 C:\Users\cmshe\AppData\Local\Temp\cckBgKsR.debug.temp.o
 .debug_line    0x0000000000000000      0x1f1 C:\Users\cmshe\AppData\Local\Temp\cckBgKsR.debug.temp.o
 .debug_str     0x0000000000000000      0x724 C:\Users\cmshe\AppData\Local\Temp\cckBgKsR.debug.temp.o
 .comment       0x0000000000000000       0x12 C:\Users\cmshe\AppData\Local\Temp\cckBgKsR.debug.temp.o
 .comment       0x0000000000000000       0x12 C:\Users\cmshe\AppData\Local\Temp\ccG8IcxU.debug.temp.o
 .debug_info    0x0000000000000000       0xa2 C:\Users\cmshe\AppData\Local\Temp\cc2FbFBX.debug.temp.o
 .debug_abbrev  0x0000000000000000       0x5f C:\Users\cmshe\AppData\Local\Temp\cc2FbFBX.debug.temp.o
 .debug_line    0x0000000000000000      0x108 C:\Users\cmshe\AppData\Local\Temp\cc2FbFBX.debug.temp.o
 .debug_str     0x0000000000000000      0x23f C:\Users\cmshe\AppData\Local\Temp\cc2FbFBX.debug.temp.o
 .comment       0x0000000000000000       0x12 C:\Users\cmshe\AppData\Local\Temp\cc2FbFBX.debug.temp.o
 .comment       0x0000000000000000       0x12 C:\Users\cmshe\AppData\Local\Temp\ccodE7F0.debug.temp.o
 .comment       0x0000000000000000       0x12 C:\Users\cmshe\AppData\Local\Temp\ccKK6zK3.debug.temp.o
 .comment       0x0000000000000000       0x12 C:\Users\cmshe\AppData\Local\Temp\cc6hz2O6.debug.temp.o
 .comment       0x0000000000000000       0x12 C:\Users\cmshe\AppData\Local\Temp\ccsP1uT9.debug.temp.o
 .comment       0x0000000000000000       0x12 C:\Users\cmshe\AppData\Local\Temp\ccSYgNCc.debug.temp.o
 .comment       0x0000000000000000       0x12 C:\Users\cmshe\AppData\Local\Temp\ccWa5F5e.debug.temp.o
 .comment       0x0000000000000000       0x12 C:\Users\cmshe\AppData\Local\Temp\cc0mTyyh.debug.temp.o
 .comment       0x0000000000000000       0x12 C:\Users\cmshe\AppData\Local\Temp\ccs9fL5j.debug.temp.o
 .comment       0x0000000000000000       0x12 C:\Users\cmshe\AppData\Local\Temp\ccqq87Zm.debug.temp.o
 .debug_info    0x0000000000000000      0xb59 C:\Users\cmshe\AppData\Local\Temp\ccGaN4Yp.debug.temp.o
 .debug_abbrev  0x0000000000000000      0x21b C:\Users\cmshe\AppData\Local\Temp\ccGaN4Yp.debug.temp.o
 .debug_line    0x0000000000000000      0x1a3 C:\Users\cmshe\AppData\Local\Temp\ccGaN4Yp.debug.temp.o
 .debug_str     0x0000000000000000      0x9d2 C:\Users\cmshe\AppData\Local\Temp\ccGaN4Yp.debug.temp.o
 .comment       0x0000000000000000       0x12 C:\Users\cmshe\AppData\Local\Temp\ccGaN4Yp.debug.temp.o
 .comment       0x0000000000000000       0x12 C:\Users\cmshe\AppData\Local\Temp\ccWUr1Xs.debug.temp.o
 .comment       0x0000000000000000       0x12 C:\Users\cmshe\AppData\Local\Temp\ccmi2eJv.debug.temp.o
 .debug_info    0x0000000000000000      0x934 C:\Users\cmshe\AppData\Local\Temp\ccSMUICy.debug.temp.o
 .debug_abbrev  0x0000000000000000      0x1b1 C:\Users\cmshe\AppData\Local\Temp\ccSMUICy.debug.temp.o
 .debug_line    0x0000000000000000      0x162 C:\Users\cmshe\AppData\Local\Temp\ccSMUICy.debug.temp.o
 .debug_str     0x0000000000000000      0x654 C:\Users\cmshe\AppData\Local\Temp\ccSMUICy.debug.temp.o
 .comment       0x0000000000000000       0x12 C:\Users\cmshe\AppData\Local\Temp\ccSMUICy.debug.temp.o
 .debug_info    0x0000000000000000      0x99a C:\Users\cmshe\AppData\Local\Temp\cc4U86HA.debug.temp.o
 .debug_abbrev  0x0000000000000000      0x1e4 C:\Users\cmshe\AppData\Local\Temp\cc4U86HA.debug.temp.o
 .debug_line    0x0000000000000000      0x16c C:\Users\cmshe\AppData\Local\Temp\cc4U86HA.debug.temp.o
 .debug_str     0x0000000000000000      0x6ac C:\Users\cmshe\AppData\Local\Temp\cc4U86HA.debug.temp.o
 .comment       0x0000000000000000       0x12 C:\Users\cmshe\AppData\Local\Temp\cc4U86HA.debug.temp.o
 .debug_info    0x0000000000000000      0xa17 C:\Users\cmshe\AppData\Local\Temp\ccg3mvNC.debug.temp.o
 .debug_abbrev  0x0000000000000000      0x1e4 C:\Users\cmshe\AppData\Local\Temp\ccg3mvNC.debug.temp.o
 .debug_line    0x0000000000000000      0x232 C:\Users\cmshe\AppData\Local\Temp\ccg3mvNC.debug.temp.o
 .debug_str     0x0000000000000000      0x77b C:\Users\cmshe\AppData\Local\Temp\ccg3mvNC.debug.temp.o
 .comment       0x0000000000000000       0x12 C:\Users\cmshe\AppData\Local\Temp\ccg3mvNC.debug.temp.o
 .debug_info    0x0000000000000000      0xc8b C:\Users\cmshe\AppData\Local\Temp\ccQlMTXE.debug.temp.o
 .debug_abbrev  0x0000000000000000      0x294 C:\Users\cmshe\AppData\Local\Temp\ccQlMTXE.debug.temp.o
 .debug_line    0x0000000000000000      0x25a C:\Users\cmshe\AppData\Local\Temp\ccQlMTXE.debug.temp.o
 .debug_str     0x0000000000000000      0x86b C:\Users\cmshe\AppData\Local\Temp\ccQlMTXE.debug.temp.o
 .comment       0x0000000000000000       0x12 C:\Users\cmshe\AppData\Local\Temp\ccQlMTXE.debug.temp.o
 .debug_info    0x0000000000000000      0xb5d C:\Users\cmshe\AppData\Local\Temp\ccK20IUG.debug.temp.o
 .debug_abbrev  0x0000000000000000      0x272 C:\Users\cmshe\AppData\Local\Temp\ccK20IUG.debug.temp.o
 .debug_line    0x0000000000000000      0x2c7 C:\Users\cmshe\AppData\Local\Temp\ccK20IUG.debug.temp.o
 .debug_str     0x0000000000000000      0x851 C:\Users\cmshe\AppData\Local\Temp\ccK20IUG.debug.temp.o
 .comment       0x0000000000000000       0x12 C:\Users\cmshe\AppData\Local\Temp\ccK20IUG.debug.temp.o
 .comment       0x0000000000000000       0x12 C:\Users\cmshe\AppData\Local\Temp\ccEJfyRI.debug.temp.o
 .comment       0x0000000000000000       0x12 C:\Users\cmshe\AppData\Local\Temp\ccKIoFSK.debug.temp.o
 .comment       0x0000000000000000       0x12 C:\Users\cmshe\AppData\Local\Temp\cc8IVOfN.debug.temp.o
 .comment       0x0000000000000000       0x12 C:\Users\cmshe\AppData\Local\Temp\ccWolzHP.debug.temp.o
 .comment       0x0000000000000000       0x12 C:\Users\cmshe\AppData\Local\Temp\ccK4Kj9R.debug.temp.o
 .debug_info    0x0000000000000000     0x270c C:\Users\cmshe\AppData\Local\Temp\ccIn6knU.debug.temp.o
 .debug_abbrev  0x0000000000000000      0x34b C:\Users\cmshe\AppData\Local\Temp\ccIn6knU.debug.temp.o
 .debug_line    0x0000000000000000      0x279 C:\Users\cmshe\AppData\Local\Temp\ccIn6knU.debug.temp.o
 .debug_str     0x0000000000000000     0x25d4 C:\Users\cmshe\AppData\Local\Temp\ccIn6knU.debug.temp.o
 .comment       0x0000000000000000       0x12 C:\Users\cmshe\AppData\Local\Temp\ccIn6knU.debug.temp.o
 .debug_info    0x0000000000000000      0xe7a C:\Users\cmshe\AppData\Local\Temp\ccQZacGW.debug.temp.o
 .debug_abbrev  0x0000000000000000      0x201 C:\Users\cmshe\AppData\Local\Temp\ccQZacGW.debug.temp.o
 .debug_line    0x0000000000000000      0x1ec C:\Users\cmshe\AppData\Local\Temp\ccQZacGW.debug.temp.o
 .debug_str     0x0000000000000000      0xbb6 C:\Users\cmshe\AppData\Local\Temp\ccQZacGW.debug.temp.o
 .comment       0x0000000000000000       0x12 C:\Users\cmshe\AppData\Local\Temp\ccQZacGW.debug.temp.o
 .comment       0x0000000000000000       0x12 C:\Users\cmshe\AppData\Local\Temp\ccYBf3YY.debug.temp.o
 .comment       0x0000000000000000       0x12 C:\Users\cmshe\AppData\Local\Temp\cccvfSt0.debug.temp.o
 .comment       0x0000000000000000       0x12 C:\Users\cmshe\AppData\Local\Temp\ccGOKg31.debug.temp.o
 .comment       0x0000000000000000       0x12 C:\Users\cmshe\AppData\Local\Temp\ccQHz7l3.debug.temp.o
 .comment       0x0000000000000000       0x12 C:\Users\cmshe\AppData\Local\Temp\ccS0XUF4.debug.temp.o
 .comment       0x0000000000000000       0x12 C:\Users\cmshe\AppData\Local\Temp\cco7PA45.debug.temp.o
 .debug_info    0x0000000000000000      0xb3b C:\Users\cmshe\AppData\Local\Temp\ccgpKRP7.debug.temp.o
 .debug_abbrev  0x0000000000000000      0x212 C:\Users\cmshe\AppData\Local\Temp\ccgpKRP7.debug.temp.o
 .debug_line    0x0000000000000000      0x1c9 C:\Users\cmshe\AppData\Local\Temp\ccgpKRP7.debug.temp.o
 .debug_str     0x0000000000000000      0x72b C:\Users\cmshe\AppData\Local\Temp\ccgpKRP7.debug.temp.o
 .comment       0x0000000000000000       0x12 C:\Users\cmshe\AppData\Local\Temp\ccgpKRP7.debug.temp.o
 .debug_info    0x0000000000000000      0xd34 C:\Users\cmshe\AppData\Local\Temp\ccugZIF9.debug.temp.o
 .debug_abbrev  0x0000000000000000      0x221 C:\Users\cmshe\AppData\Local\Temp\ccugZIF9.debug.temp.o
 .debug_line    0x0000000000000000      0x180 C:\Users\cmshe\AppData\Local\Temp\ccugZIF9.debug.temp.o
 .debug_str     0x0000000000000000      0xa06 C:\Users\cmshe\AppData\Local\Temp\ccugZIF9.debug.temp.o
 .comment       0x0000000000000000       0x12 C:\Users\cmshe\AppData\Local\Temp\ccugZIF9.debug.temp.o
 .comment       0x0000000000000000       0x12 C:\Users\cmshe\AppData\Local\Temp\ccQ7fahb.debug.temp.o
 .comment       0x0000000000000000       0x12 C:\Users\cmshe\AppData\Local\Temp\cceyA0Wc.debug.temp.o
 .comment       0x0000000000000000       0x12 C:\Users\cmshe\AppData\Local\Temp\ccKsU1vi.debug.temp.o
 .comment       0x0000000000000000       0x12 C:\Users\cmshe\AppData\Local\Temp\ccIlMQbo.debug.temp.o
 .comment       0x0000000000000000       0x12 C:\Users\cmshe\AppData\Local\Temp\cc8kmwIt.debug.temp.o
 .comment       0x0000000000000000       0x12 C:\Users\cmshe\AppData\Local\Temp\ccOMw5Az.debug.temp.o
 .comment       0x0000000000000000       0x12 C:\Users\cmshe\AppData\Local\Temp\ccMbX5xF.debug.temp.o
 .comment       0x0000000000000000       0x12 C:\Users\cmshe\AppData\Local\Temp\cc4YcxhL.debug.temp.o
 .comment       0x0000000000000000       0x12 C:\Users\cmshe\AppData\Local\Temp\ccAHgX5Q.debug.temp.o
 .comment       0x0000000000000000       0x12 C:\Users\cmshe\AppData\Local\Temp\ccSGY95V.debug.temp.o
 .comment       0x0000000000000000       0x12 C:\Users\cmshe\AppData\Local\Temp\ccwztEW0.debug.temp.o
 .comment       0x0000000000000000       0x12 C:\Users\cmshe\AppData\Local\Temp\ccGwyqL5.debug.temp.o
 .comment       0x0000000000000000       0x12 C:\Users\cmshe\AppData\Local\Temp\ccQtDcAa.debug.temp.o
 .comment       0x0000000000000000       0x12 C:\Users\cmshe\AppData\Local\Temp\cc0qIYof.debug.temp.o
 .comment       0x0000000000000000       0x12 C:\Users\cmshe\AppData\Local\Temp\ccaoNKdk.debug.temp.o
 .comment       0x0000000000000000       0x12 C:\Users\cmshe\AppData\Local\Temp\ccklSw2o.debug.temp.o
 .text          0x0000000000000000        0x0 build/objs/ci130x_vtable.o
 .data          0x0000000000000000        0x0 build/objs/ci130x_vtable.o
 .bss           0x0000000000000000        0x0 build/objs/ci130x_vtable.o
 .debug_line    0x0000000000000000       0x51 build/objs/ci130x_vtable.o
 .debug_info    0x0000000000000000       0x26 build/objs/ci130x_vtable.o
 .debug_abbrev  0x0000000000000000       0x14 build/objs/ci130x_vtable.o
 .debug_aranges
                0x0000000000000000       0x20 build/objs/ci130x_vtable.o
 .debug_str     0x0000000000000000       0x7f build/objs/ci130x_vtable.o
 .riscv.attributes
                0x0000000000000000       0x2e build/objs/ci130x_vtable.o
 .text          0x0000000000000000        0x0 build/objs/ci130x_startup.o
 .data          0x0000000000000000        0x0 build/objs/ci130x_startup.o
 .bss           0x0000000000000000        0x0 build/objs/ci130x_startup.o
 .text          0x0000000000000000        0x0 ../../../libs\libnewlib_port.a(sbrk.o)
 .data          0x0000000000000000        0x0 ../../../libs\libnewlib_port.a(sbrk.o)
 .bss           0x0000000000000000        0x0 ../../../libs\libnewlib_port.a(sbrk.o)
 .text._sbrk    0x0000000000000000       0x18 ../../../libs\libnewlib_port.a(sbrk.o)
 .text.__env_lock
                0x0000000000000000       0x18 ../../../libs\libnewlib_port.a(sbrk.o)
 .text.__env_unlock
                0x0000000000000000       0x18 ../../../libs\libnewlib_port.a(sbrk.o)
 .text.__wrap__malloc_r
                0x0000000000000000       0x1c ../../../libs\libnewlib_port.a(sbrk.o)
 .text.__wrap__free_r
                0x0000000000000000       0x1c ../../../libs\libnewlib_port.a(sbrk.o)
 .text.__wrap_strncat
                0x0000000000000000       0x18 ../../../libs\libnewlib_port.a(sbrk.o)
 .text.__wrap_stpcpy
                0x0000000000000000       0x18 ../../../libs\libnewlib_port.a(sbrk.o)
 .text.__wrap_stpncpy
                0x0000000000000000       0x18 ../../../libs\libnewlib_port.a(sbrk.o)
 .text.__wrap_strnlen
                0x0000000000000000       0x18 ../../../libs\libnewlib_port.a(sbrk.o)
 .text.__wrap_strtoul
                0x0000000000000000       0x1a ../../../libs\libnewlib_port.a(sbrk.o)
 .text.__wrap_atol
                0x0000000000000000       0x1a ../../../libs\libnewlib_port.a(sbrk.o)
 .text.__wrap_qsort
                0x0000000000000000       0x1a ../../../libs\libnewlib_port.a(sbrk.o)
 .text.__wrap_vsnprintf
                0x0000000000000000       0x1a ../../../libs\libnewlib_port.a(sbrk.o)
 .text.__wrap_sprintf
                0x0000000000000000       0x1a ../../../libs\libnewlib_port.a(sbrk.o)
 .text.__wrap_abs
                0x0000000000000000       0x1a ../../../libs\libnewlib_port.a(sbrk.o)
 .text.__wrap_isnan
                0x0000000000000000       0x1a ../../../libs\libnewlib_port.a(sbrk.o)
 .text.__wrap_isinf
                0x0000000000000000       0x1a ../../../libs\libnewlib_port.a(sbrk.o)
 .text.__wrap_cosf
                0x0000000000000000       0x1a ../../../libs\libnewlib_port.a(sbrk.o)
 .text.__wrap_sinf
                0x0000000000000000       0x1a ../../../libs\libnewlib_port.a(sbrk.o)
 .text.__wrap_tanf
                0x0000000000000000       0x1a ../../../libs\libnewlib_port.a(sbrk.o)
 .text.__wrap_expf
                0x0000000000000000       0x1a ../../../libs\libnewlib_port.a(sbrk.o)
 .text.__wrap_sqrtf
                0x0000000000000000       0x1a ../../../libs\libnewlib_port.a(sbrk.o)
 .text.__wrap_fabsf
                0x0000000000000000       0x1a ../../../libs\libnewlib_port.a(sbrk.o)
 .text.__wrap_logf
                0x0000000000000000       0x1a ../../../libs\libnewlib_port.a(sbrk.o)
 .text.__wrap_log10f
                0x0000000000000000       0x1a ../../../libs\libnewlib_port.a(sbrk.o)
 .text          0x0000000000000000        0x0 ../../../libs\libfreertos_port.a(portasm.o)
 .data          0x0000000000000000        0x0 ../../../libs\libfreertos_port.a(portasm.o)
 .bss           0x0000000000000000        0x0 ../../../libs\libfreertos_port.a(portasm.o)
 .data          0x0000000000000000        0x0 c:/riscv-nuclei-elf-gcc-9.2.0/gcc_fix_raissrc/bin/../lib/gcc/riscv-nuclei-elf/9.2.0/rv32imafc/ilp32f\libgcc.a(save-restore.o)
 .bss           0x0000000000000000        0x0 c:/riscv-nuclei-elf-gcc-9.2.0/gcc_fix_raissrc/bin/../lib/gcc/riscv-nuclei-elf/9.2.0/rv32imafc/ilp32f\libgcc.a(save-restore.o)
 .eh_frame      0x0000000000000000       0xf8 c:/riscv-nuclei-elf-gcc-9.2.0/gcc_fix_raissrc/bin/../lib/gcc/riscv-nuclei-elf/9.2.0/rv32imafc/ilp32f\libgcc.a(save-restore.o)
 .data          0x0000000000000000        0x0 c:/riscv-nuclei-elf-gcc-9.2.0/gcc_fix_raissrc/bin/../lib/gcc/riscv-nuclei-elf/9.2.0/rv32imafc/ilp32f\libgcc.a(gedf2.o)
 .bss           0x0000000000000000        0x0 c:/riscv-nuclei-elf-gcc-9.2.0/gcc_fix_raissrc/bin/../lib/gcc/riscv-nuclei-elf/9.2.0/rv32imafc/ilp32f\libgcc.a(gedf2.o)
 .data          0x0000000000000000        0x0 c:/riscv-nuclei-elf-gcc-9.2.0/gcc_fix_raissrc/bin/../lib/gcc/riscv-nuclei-elf/9.2.0/rv32imafc/ilp32f\libgcc.a(ledf2.o)
 .bss           0x0000000000000000        0x0 c:/riscv-nuclei-elf-gcc-9.2.0/gcc_fix_raissrc/bin/../lib/gcc/riscv-nuclei-elf/9.2.0/rv32imafc/ilp32f\libgcc.a(ledf2.o)
 .data          0x0000000000000000        0x0 c:/riscv-nuclei-elf-gcc-9.2.0/gcc_fix_raissrc/bin/../lib/gcc/riscv-nuclei-elf/9.2.0/rv32imafc/ilp32f\libgcc.a(extendsfdf2.o)
 .bss           0x0000000000000000        0x0 c:/riscv-nuclei-elf-gcc-9.2.0/gcc_fix_raissrc/bin/../lib/gcc/riscv-nuclei-elf/9.2.0/rv32imafc/ilp32f\libgcc.a(extendsfdf2.o)
 .data          0x0000000000000000        0x0 c:/riscv-nuclei-elf-gcc-9.2.0/gcc_fix_raissrc/bin/../lib/gcc/riscv-nuclei-elf/9.2.0/rv32imafc/ilp32f\libgcc.a(_clzsi2.o)
 .bss           0x0000000000000000        0x0 c:/riscv-nuclei-elf-gcc-9.2.0/gcc_fix_raissrc/bin/../lib/gcc/riscv-nuclei-elf/9.2.0/rv32imafc/ilp32f\libgcc.a(_clzsi2.o)
 .text          0x0000000000000000        0x0 c:/riscv-nuclei-elf-gcc-9.2.0/gcc_fix_raissrc/bin/../lib/gcc/riscv-nuclei-elf/9.2.0/rv32imafc/ilp32f\libgcc.a(_clz.o)
 .data          0x0000000000000000        0x0 c:/riscv-nuclei-elf-gcc-9.2.0/gcc_fix_raissrc/bin/../lib/gcc/riscv-nuclei-elf/9.2.0/rv32imafc/ilp32f\libgcc.a(_clz.o)
 .bss           0x0000000000000000        0x0 c:/riscv-nuclei-elf-gcc-9.2.0/gcc_fix_raissrc/bin/../lib/gcc/riscv-nuclei-elf/9.2.0/rv32imafc/ilp32f\libgcc.a(_clz.o)
 .text          0x0000000000000000        0x0 c:/riscv-nuclei-elf-gcc-9.2.0/gcc_fix_raissrc/bin/../lib/gcc/riscv-nuclei-elf/9.2.0/../../../../riscv-nuclei-elf/lib/rv32imafc/ilp32f\libg_nano.a(lib_a-atexit.o)
 .data          0x0000000000000000        0x0 c:/riscv-nuclei-elf-gcc-9.2.0/gcc_fix_raissrc/bin/../lib/gcc/riscv-nuclei-elf/9.2.0/../../../../riscv-nuclei-elf/lib/rv32imafc/ilp32f\libg_nano.a(lib_a-atexit.o)
 .bss           0x0000000000000000        0x0 c:/riscv-nuclei-elf-gcc-9.2.0/gcc_fix_raissrc/bin/../lib/gcc/riscv-nuclei-elf/9.2.0/../../../../riscv-nuclei-elf/lib/rv32imafc/ilp32f\libg_nano.a(lib_a-atexit.o)
 .text          0x0000000000000000        0x0 c:/riscv-nuclei-elf-gcc-9.2.0/gcc_fix_raissrc/bin/../lib/gcc/riscv-nuclei-elf/9.2.0/../../../../riscv-nuclei-elf/lib/rv32imafc/ilp32f\libg_nano.a(lib_a-exit.o)
 .data          0x0000000000000000        0x0 c:/riscv-nuclei-elf-gcc-9.2.0/gcc_fix_raissrc/bin/../lib/gcc/riscv-nuclei-elf/9.2.0/../../../../riscv-nuclei-elf/lib/rv32imafc/ilp32f\libg_nano.a(lib_a-exit.o)
 .bss           0x0000000000000000        0x0 c:/riscv-nuclei-elf-gcc-9.2.0/gcc_fix_raissrc/bin/../lib/gcc/riscv-nuclei-elf/9.2.0/../../../../riscv-nuclei-elf/lib/rv32imafc/ilp32f\libg_nano.a(lib_a-exit.o)
 .text          0x0000000000000000        0x0 c:/riscv-nuclei-elf-gcc-9.2.0/gcc_fix_raissrc/bin/../lib/gcc/riscv-nuclei-elf/9.2.0/../../../../riscv-nuclei-elf/lib/rv32imafc/ilp32f\libg_nano.a(lib_a-fini.o)
 .data          0x0000000000000000        0x0 c:/riscv-nuclei-elf-gcc-9.2.0/gcc_fix_raissrc/bin/../lib/gcc/riscv-nuclei-elf/9.2.0/../../../../riscv-nuclei-elf/lib/rv32imafc/ilp32f\libg_nano.a(lib_a-fini.o)
 .bss           0x0000000000000000        0x0 c:/riscv-nuclei-elf-gcc-9.2.0/gcc_fix_raissrc/bin/../lib/gcc/riscv-nuclei-elf/9.2.0/../../../../riscv-nuclei-elf/lib/rv32imafc/ilp32f\libg_nano.a(lib_a-fini.o)
 .text          0x0000000000000000        0x0 c:/riscv-nuclei-elf-gcc-9.2.0/gcc_fix_raissrc/bin/../lib/gcc/riscv-nuclei-elf/9.2.0/../../../../riscv-nuclei-elf/lib/rv32imafc/ilp32f\libg_nano.a(lib_a-impure.o)
 .data          0x0000000000000000        0x0 c:/riscv-nuclei-elf-gcc-9.2.0/gcc_fix_raissrc/bin/../lib/gcc/riscv-nuclei-elf/9.2.0/../../../../riscv-nuclei-elf/lib/rv32imafc/ilp32f\libg_nano.a(lib_a-impure.o)
 .bss           0x0000000000000000        0x0 c:/riscv-nuclei-elf-gcc-9.2.0/gcc_fix_raissrc/bin/../lib/gcc/riscv-nuclei-elf/9.2.0/../../../../riscv-nuclei-elf/lib/rv32imafc/ilp32f\libg_nano.a(lib_a-impure.o)
 .text          0x0000000000000000        0x0 c:/riscv-nuclei-elf-gcc-9.2.0/gcc_fix_raissrc/bin/../lib/gcc/riscv-nuclei-elf/9.2.0/../../../../riscv-nuclei-elf/lib/rv32imafc/ilp32f\libg_nano.a(lib_a-init.o)
 .data          0x0000000000000000        0x0 c:/riscv-nuclei-elf-gcc-9.2.0/gcc_fix_raissrc/bin/../lib/gcc/riscv-nuclei-elf/9.2.0/../../../../riscv-nuclei-elf/lib/rv32imafc/ilp32f\libg_nano.a(lib_a-init.o)
 .bss           0x0000000000000000        0x0 c:/riscv-nuclei-elf-gcc-9.2.0/gcc_fix_raissrc/bin/../lib/gcc/riscv-nuclei-elf/9.2.0/../../../../riscv-nuclei-elf/lib/rv32imafc/ilp32f\libg_nano.a(lib_a-init.o)
 .text          0x0000000000000000        0x0 c:/riscv-nuclei-elf-gcc-9.2.0/gcc_fix_raissrc/bin/../lib/gcc/riscv-nuclei-elf/9.2.0/../../../../riscv-nuclei-elf/lib/rv32imafc/ilp32f\libg_nano.a(lib_a-rand.o)
 .data          0x0000000000000000        0x0 c:/riscv-nuclei-elf-gcc-9.2.0/gcc_fix_raissrc/bin/../lib/gcc/riscv-nuclei-elf/9.2.0/../../../../riscv-nuclei-elf/lib/rv32imafc/ilp32f\libg_nano.a(lib_a-rand.o)
 .bss           0x0000000000000000        0x0 c:/riscv-nuclei-elf-gcc-9.2.0/gcc_fix_raissrc/bin/../lib/gcc/riscv-nuclei-elf/9.2.0/../../../../riscv-nuclei-elf/lib/rv32imafc/ilp32f\libg_nano.a(lib_a-rand.o)
 .text.srand    0x0000000000000000       0x60 c:/riscv-nuclei-elf-gcc-9.2.0/gcc_fix_raissrc/bin/../lib/gcc/riscv-nuclei-elf/9.2.0/../../../../riscv-nuclei-elf/lib/rv32imafc/ilp32f\libg_nano.a(lib_a-rand.o)
 .text          0x0000000000000000        0x0 c:/riscv-nuclei-elf-gcc-9.2.0/gcc_fix_raissrc/bin/../lib/gcc/riscv-nuclei-elf/9.2.0/../../../../riscv-nuclei-elf/lib/rv32imafc/ilp32f\libg_nano.a(lib_a-__atexit.o)
 .data          0x0000000000000000        0x0 c:/riscv-nuclei-elf-gcc-9.2.0/gcc_fix_raissrc/bin/../lib/gcc/riscv-nuclei-elf/9.2.0/../../../../riscv-nuclei-elf/lib/rv32imafc/ilp32f\libg_nano.a(lib_a-__atexit.o)
 .bss           0x0000000000000000        0x0 c:/riscv-nuclei-elf-gcc-9.2.0/gcc_fix_raissrc/bin/../lib/gcc/riscv-nuclei-elf/9.2.0/../../../../riscv-nuclei-elf/lib/rv32imafc/ilp32f\libg_nano.a(lib_a-__atexit.o)
 .sdata.__atexit_dummy
                0x0000000000000000        0x4 c:/riscv-nuclei-elf-gcc-9.2.0/gcc_fix_raissrc/bin/../lib/gcc/riscv-nuclei-elf/9.2.0/../../../../riscv-nuclei-elf/lib/rv32imafc/ilp32f\libg_nano.a(lib_a-__atexit.o)
 .text          0x0000000000000000        0x0 c:/riscv-nuclei-elf-gcc-9.2.0/gcc_fix_raissrc/bin/../lib/gcc/riscv-nuclei-elf/9.2.0/../../../../riscv-nuclei-elf/lib/rv32imafc/ilp32f\libg_nano.a(lib_a-__call_atexit.o)
 .data          0x0000000000000000        0x0 c:/riscv-nuclei-elf-gcc-9.2.0/gcc_fix_raissrc/bin/../lib/gcc/riscv-nuclei-elf/9.2.0/../../../../riscv-nuclei-elf/lib/rv32imafc/ilp32f\libg_nano.a(lib_a-__call_atexit.o)
 .bss           0x0000000000000000        0x0 c:/riscv-nuclei-elf-gcc-9.2.0/gcc_fix_raissrc/bin/../lib/gcc/riscv-nuclei-elf/9.2.0/../../../../riscv-nuclei-elf/lib/rv32imafc/ilp32f\libg_nano.a(lib_a-__call_atexit.o)
 .text          0x0000000000000000        0x0 c:/riscv-nuclei-elf-gcc-9.2.0/gcc_fix_raissrc/bin/../lib/gcc/riscv-nuclei-elf/9.2.0/../../../../riscv-nuclei-elf/lib/rv32imafc/ilp32f\libg_nano.a(lib_a-strchr.o)
 .data          0x0000000000000000        0x0 c:/riscv-nuclei-elf-gcc-9.2.0/gcc_fix_raissrc/bin/../lib/gcc/riscv-nuclei-elf/9.2.0/../../../../riscv-nuclei-elf/lib/rv32imafc/ilp32f\libg_nano.a(lib_a-strchr.o)
 .bss           0x0000000000000000        0x0 c:/riscv-nuclei-elf-gcc-9.2.0/gcc_fix_raissrc/bin/../lib/gcc/riscv-nuclei-elf/9.2.0/../../../../riscv-nuclei-elf/lib/rv32imafc/ilp32f\libg_nano.a(lib_a-strchr.o)
 .text          0x0000000000000000        0x0 c:/riscv-nuclei-elf-gcc-9.2.0/gcc_fix_raissrc/bin/../lib/gcc/riscv-nuclei-elf/9.2.0/../../../../riscv-nuclei-elf/lib/rv32imafc/ilp32f\libgloss_nano.a(sys_exit.o)
 .data          0x0000000000000000        0x0 c:/riscv-nuclei-elf-gcc-9.2.0/gcc_fix_raissrc/bin/../lib/gcc/riscv-nuclei-elf/9.2.0/../../../../riscv-nuclei-elf/lib/rv32imafc/ilp32f\libgloss_nano.a(sys_exit.o)
 .bss           0x0000000000000000        0x0 c:/riscv-nuclei-elf-gcc-9.2.0/gcc_fix_raissrc/bin/../lib/gcc/riscv-nuclei-elf/9.2.0/../../../../riscv-nuclei-elf/lib/rv32imafc/ilp32f\libgloss_nano.a(sys_exit.o)
 .text          0x0000000000000000        0x0 c:/riscv-nuclei-elf-gcc-9.2.0/gcc_fix_raissrc/bin/../lib/gcc/riscv-nuclei-elf/9.2.0/../../../../riscv-nuclei-elf/lib/rv32imafc/ilp32f\libc_nano.a(lib_a-errno.o)
 .data          0x0000000000000000        0x0 c:/riscv-nuclei-elf-gcc-9.2.0/gcc_fix_raissrc/bin/../lib/gcc/riscv-nuclei-elf/9.2.0/../../../../riscv-nuclei-elf/lib/rv32imafc/ilp32f\libc_nano.a(lib_a-errno.o)
 .bss           0x0000000000000000        0x0 c:/riscv-nuclei-elf-gcc-9.2.0/gcc_fix_raissrc/bin/../lib/gcc/riscv-nuclei-elf/9.2.0/../../../../riscv-nuclei-elf/lib/rv32imafc/ilp32f\libc_nano.a(lib_a-errno.o)

Memory Configuration

Name             Origin             Length             Attributes
BOOT_PARAMETER   0x000000001ff50a00 0x0000000000000200
SHARE_SRAM       0x000000001ff50c00 0x0000000000000400
SRAM             0x000000001ff51000 0x0000000000081000 xrw
*default*        0x0000000000000000 0xffffffffffffffff

Linker script and memory map

LOAD C:\Users\cmshe\AppData\Local\Temp\cwsl_A_sample.elf.eOOQKS.ltrans0.ltrans.o
LOAD C:\Users\cmshe\AppData\Local\Temp\cwsl_A_sample.elf.eOOQKS.ltrans1.ltrans.o
LOAD C:\Users\cmshe\AppData\Local\Temp\cwsl_A_sample.elf.eOOQKS.ltrans2.ltrans.o
LOAD C:\Users\cmshe\AppData\Local\Temp\ccqaTf3A.debug.temp.o
LOAD C:\Users\cmshe\AppData\Local\Temp\ccSSPpPA.debug.temp.o
LOAD C:\Users\cmshe\AppData\Local\Temp\cckBMzBA.debug.temp.o
LOAD C:\Users\cmshe\AppData\Local\Temp\ccI16h9z.debug.temp.o
LOAD C:\Users\cmshe\AppData\Local\Temp\cc6rr0Gz.debug.temp.o
LOAD C:\Users\cmshe\AppData\Local\Temp\ccIJt9iz.debug.temp.o
LOAD C:\Users\cmshe\AppData\Local\Temp\ccOUa3hz.debug.temp.o
LOAD C:\Users\cmshe\AppData\Local\Temp\ccU5RWgz.debug.temp.o
LOAD C:\Users\cmshe\AppData\Local\Temp\ccqu1Qkz.debug.temp.o
LOAD C:\Users\cmshe\AppData\Local\Temp\ccWSaLoz.debug.temp.o
LOAD C:\Users\cmshe\AppData\Local\Temp\ccs9lMez.debug.temp.o
LOAD C:\Users\cmshe\AppData\Local\Temp\ccYpxN4y.debug.temp.o
LOAD C:\Users\cmshe\AppData\Local\Temp\ccEnMGYy.debug.temp.o
LOAD C:\Users\cmshe\AppData\Local\Temp\ccgT5E4x.debug.temp.o
LOAD C:\Users\cmshe\AppData\Local\Temp\cc4cQ3ex.debug.temp.o
LOAD C:\Users\cmshe\AppData\Local\Temp\ccIvymrw.debug.temp.o
LOAD C:\Users\cmshe\AppData\Local\Temp\ccmOgFDv.debug.temp.o
LOAD C:\Users\cmshe\AppData\Local\Temp\cc06YXPu.debug.temp.o
LOAD C:\Users\cmshe\AppData\Local\Temp\ccWcWxSt.debug.temp.o
LOAD C:\Users\cmshe\AppData\Local\Temp\ccSiT7Us.debug.temp.o
LOAD C:\Users\cmshe\AppData\Local\Temp\ccOoQHXr.debug.temp.o
LOAD C:\Users\cmshe\AppData\Local\Temp\ccKuNh0q.debug.temp.o
LOAD C:\Users\cmshe\AppData\Local\Temp\ccGAKR2p.debug.temp.o
LOAD C:\Users\cmshe\AppData\Local\Temp\ccCGHr5o.debug.temp.o
LOAD C:\Users\cmshe\AppData\Local\Temp\cc6Jgcls.debug.temp.o
LOAD C:\Users\cmshe\AppData\Local\Temp\ccANPWAv.debug.temp.o
LOAD C:\Users\cmshe\AppData\Local\Temp\cc4QoHQy.debug.temp.o
LOAD C:\Users\cmshe\AppData\Local\Temp\ccyUXr6B.debug.temp.o
LOAD C:\Users\cmshe\AppData\Local\Temp\ccUrqUaF.debug.temp.o
LOAD C:\Users\cmshe\AppData\Local\Temp\ccgZSmfI.debug.temp.o
LOAD C:\Users\cmshe\AppData\Local\Temp\ccCwlPjL.debug.temp.o
LOAD C:\Users\cmshe\AppData\Local\Temp\ccY3NhoO.debug.temp.o
LOAD C:\Users\cmshe\AppData\Local\Temp\cckBgKsR.debug.temp.o
LOAD C:\Users\cmshe\AppData\Local\Temp\ccG8IcxU.debug.temp.o
LOAD C:\Users\cmshe\AppData\Local\Temp\cc2FbFBX.debug.temp.o
LOAD C:\Users\cmshe\AppData\Local\Temp\ccodE7F0.debug.temp.o
LOAD C:\Users\cmshe\AppData\Local\Temp\ccKK6zK3.debug.temp.o
LOAD C:\Users\cmshe\AppData\Local\Temp\cc6hz2O6.debug.temp.o
LOAD C:\Users\cmshe\AppData\Local\Temp\ccsP1uT9.debug.temp.o
LOAD C:\Users\cmshe\AppData\Local\Temp\ccSYgNCc.debug.temp.o
LOAD C:\Users\cmshe\AppData\Local\Temp\ccWa5F5e.debug.temp.o
LOAD C:\Users\cmshe\AppData\Local\Temp\cc0mTyyh.debug.temp.o
LOAD C:\Users\cmshe\AppData\Local\Temp\ccs9fL5j.debug.temp.o
LOAD C:\Users\cmshe\AppData\Local\Temp\ccqq87Zm.debug.temp.o
LOAD C:\Users\cmshe\AppData\Local\Temp\ccGaN4Yp.debug.temp.o
LOAD C:\Users\cmshe\AppData\Local\Temp\ccWUr1Xs.debug.temp.o
LOAD C:\Users\cmshe\AppData\Local\Temp\ccmi2eJv.debug.temp.o
LOAD C:\Users\cmshe\AppData\Local\Temp\ccSMUICy.debug.temp.o
LOAD C:\Users\cmshe\AppData\Local\Temp\cc4U86HA.debug.temp.o
LOAD C:\Users\cmshe\AppData\Local\Temp\ccg3mvNC.debug.temp.o
LOAD C:\Users\cmshe\AppData\Local\Temp\ccQlMTXE.debug.temp.o
LOAD C:\Users\cmshe\AppData\Local\Temp\ccK20IUG.debug.temp.o
LOAD C:\Users\cmshe\AppData\Local\Temp\ccEJfyRI.debug.temp.o
LOAD C:\Users\cmshe\AppData\Local\Temp\ccKIoFSK.debug.temp.o
LOAD C:\Users\cmshe\AppData\Local\Temp\cc8IVOfN.debug.temp.o
LOAD C:\Users\cmshe\AppData\Local\Temp\ccWolzHP.debug.temp.o
LOAD C:\Users\cmshe\AppData\Local\Temp\ccK4Kj9R.debug.temp.o
LOAD C:\Users\cmshe\AppData\Local\Temp\ccIn6knU.debug.temp.o
LOAD C:\Users\cmshe\AppData\Local\Temp\ccQZacGW.debug.temp.o
LOAD C:\Users\cmshe\AppData\Local\Temp\ccYBf3YY.debug.temp.o
LOAD C:\Users\cmshe\AppData\Local\Temp\cccvfSt0.debug.temp.o
LOAD C:\Users\cmshe\AppData\Local\Temp\ccGOKg31.debug.temp.o
LOAD C:\Users\cmshe\AppData\Local\Temp\ccQHz7l3.debug.temp.o
LOAD C:\Users\cmshe\AppData\Local\Temp\ccS0XUF4.debug.temp.o
LOAD C:\Users\cmshe\AppData\Local\Temp\cco7PA45.debug.temp.o
LOAD C:\Users\cmshe\AppData\Local\Temp\ccgpKRP7.debug.temp.o
LOAD C:\Users\cmshe\AppData\Local\Temp\ccugZIF9.debug.temp.o
LOAD C:\Users\cmshe\AppData\Local\Temp\ccQ7fahb.debug.temp.o
LOAD C:\Users\cmshe\AppData\Local\Temp\cceyA0Wc.debug.temp.o
LOAD C:\Users\cmshe\AppData\Local\Temp\ccKsU1vi.debug.temp.o
LOAD C:\Users\cmshe\AppData\Local\Temp\ccIlMQbo.debug.temp.o
LOAD C:\Users\cmshe\AppData\Local\Temp\cc8kmwIt.debug.temp.o
LOAD C:\Users\cmshe\AppData\Local\Temp\ccOMw5Az.debug.temp.o
LOAD C:\Users\cmshe\AppData\Local\Temp\ccMbX5xF.debug.temp.o
LOAD C:\Users\cmshe\AppData\Local\Temp\cc4YcxhL.debug.temp.o
LOAD C:\Users\cmshe\AppData\Local\Temp\ccAHgX5Q.debug.temp.o
LOAD C:\Users\cmshe\AppData\Local\Temp\ccSGY95V.debug.temp.o
LOAD C:\Users\cmshe\AppData\Local\Temp\ccwztEW0.debug.temp.o
LOAD C:\Users\cmshe\AppData\Local\Temp\ccGwyqL5.debug.temp.o
LOAD C:\Users\cmshe\AppData\Local\Temp\ccQtDcAa.debug.temp.o
LOAD C:\Users\cmshe\AppData\Local\Temp\cc0qIYof.debug.temp.o
LOAD C:\Users\cmshe\AppData\Local\Temp\ccaoNKdk.debug.temp.o
LOAD C:\Users\cmshe\AppData\Local\Temp\ccklSw2o.debug.temp.o
LOAD build/objs/ci130x_vtable.o
LOAD build/objs/ci130x_startup.o
LOAD ../../../libs\libasr.a
LOAD ../../../libs\libnewlib_port.a
LOAD ../../../libs\libfreertos_port.a
LOAD ../../../libs\libdsu.a
LOAD ../../../libs\libflash_encrypt.a
LOAD ../../../libs\libcwsl.a
LOAD ../../../libs\libcikd_asrBc.a
LOAD c:/riscv-nuclei-elf-gcc-9.2.0/gcc_fix_raissrc/bin/../lib/gcc/riscv-nuclei-elf/9.2.0/../../../../riscv-nuclei-elf/lib/rv32imafc/ilp32f\libstdc++.a
LOAD c:/riscv-nuclei-elf-gcc-9.2.0/gcc_fix_raissrc/bin/../lib/gcc/riscv-nuclei-elf/9.2.0/../../../../riscv-nuclei-elf/lib/rv32imafc/ilp32f\libm.a
LOAD c:/riscv-nuclei-elf-gcc-9.2.0/gcc_fix_raissrc/bin/../lib/gcc/riscv-nuclei-elf/9.2.0/rv32imafc/ilp32f\libgcc.a
LOAD c:/riscv-nuclei-elf-gcc-9.2.0/gcc_fix_raissrc/bin/../lib/gcc/riscv-nuclei-elf/9.2.0/../../../../riscv-nuclei-elf/lib/rv32imafc/ilp32f\libg_nano.a
LOAD c:/riscv-nuclei-elf-gcc-9.2.0/gcc_fix_raissrc/bin/../lib/gcc/riscv-nuclei-elf/9.2.0/../../../../riscv-nuclei-elf/lib/rv32imafc/ilp32f\libc_nano.a
LOAD c:/riscv-nuclei-elf-gcc-9.2.0/gcc_fix_raissrc/bin/../lib/gcc/riscv-nuclei-elf/9.2.0/rv32imafc/ilp32f\libgcc.a
START GROUP
LOAD c:/riscv-nuclei-elf-gcc-9.2.0/gcc_fix_raissrc/bin/../lib/gcc/riscv-nuclei-elf/9.2.0/rv32imafc/ilp32f\libgcc.a
LOAD c:/riscv-nuclei-elf-gcc-9.2.0/gcc_fix_raissrc/bin/../lib/gcc/riscv-nuclei-elf/9.2.0/../../../../riscv-nuclei-elf/lib/rv32imafc/ilp32f\libc_nano.a
LOAD c:/riscv-nuclei-elf-gcc-9.2.0/gcc_fix_raissrc/bin/../lib/gcc/riscv-nuclei-elf/9.2.0/../../../../riscv-nuclei-elf/lib/rv32imafc/ilp32f\libgloss_nano.a
END GROUP
                0x0000000000000c00                STACK_SIZE = 0xc00
                0x000000001ffd2000                SRAM_HOST_END_ADDR = 0x1ffd2000
                0x000000001fff8000                CHIP_SRAM_END_ADDR = 0x1fff8000
                0x000000001ffaa000                CI1310_SRAM_HOST_END_ADDR = 0x1ffaa000
                0x000000001ffd0000                CI1310_SRAM_END_ADDR = 0x1ffd0000
                0x000000001ff50a00                BOOT_PARAMETER_ADDR = 0x1ff50a00
                0x0000000000000200                BOOT_PARAMETER_SIZE = 0x200
                0x000000001ff50c00                SHARE_SRAM_ADDR = 0x1ff50c00
                0x0000000000000400                SHARE_SRAM_SIZE = 0x400
                0x000000001ff51000                SRAM_START_ADDR = 0x1ff51000
                0x000000001ffd2000                SRAM_END_ADDR = SRAM_HOST_END_ADDR
                0x0000000000081000                SRAM_SIZE = (SRAM_END_ADDR - SRAM_START_ADDR)
                0x000000000000f000                SYS_HEAP_SIZE = 0xf000
                0x0000000000000c00                __stack_size = STACK_SIZE
                0x0000000000000c00                __int_stack_size = STACK_SIZE
                0x0000000000000c00                __stack_size = DEFINED (__stack_size)?__stack_size:0x800
                0x0000000000000c00                __int_stack_size = DEFINED (__int_stack_size)?__int_stack_size:0x400

.boot_parameter
                0x000000001ff50a00      0x116
 *.(boot_parameter)
 .boot_parameter
                0x000000001ff50a00      0x116 C:\Users\cmshe\AppData\Local\Temp\cwsl_A_sample.elf.eOOQKS.ltrans1.ltrans.o

.share_memory   0x000000001ff50c00       0x7c
 *(.share_mem)
 .share_mem     0x000000001ff50c00       0x7c C:\Users\cmshe\AppData\Local\Temp\cwsl_A_sample.elf.eOOQKS.ltrans0.ltrans.o
                0x000000001ff50c00                status_list.lto_priv.0

.init           0x000000001ff51000      0x272
 *(.vtable)
 .vtable        0x000000001ff51000      0x100 build/objs/ci130x_vtable.o
                0x000000001ff51000                vector_base
 *(.load_addr)
 .load_addr     0x000000001ff51100       0x3c build/objs/ci130x_startup.o
 *(SORT_NONE(.init))
 .init          0x000000001ff5113c      0x136 build/objs/ci130x_startup.o
                0x000000001ff5113c                _start
                0x000000001ff51162                _virtual_start
                0x000000001ff51250                disable_mcycle_minstret
                0x000000001ff51256                enable_mcycle_minstret
                0x000000001ff5125c                core_wfe_asm

.ilalign        0x000000001ff51272        0x2
                0x000000001ff51274                . = ALIGN (0x4)
 *fill*         0x000000001ff51272        0x2 
                0x000000001ff51274                PROVIDE (_ilm_lma = .)

.ialign         0x000000001ff51274        0x0
                0x000000001ff51274                PROVIDE (_ilm = .)

.text           0x000000001ff51280    0x155ce
 *(.text.unlikely .text.unlikely.*)
 *(.text.startup .text.startup.*)
 .text.startup.main
                0x000000001ff51280      0x56a C:\Users\cmshe\AppData\Local\Temp\cwsl_A_sample.elf.eOOQKS.ltrans1.ltrans.o
                0x000000001ff51280                main
 *(.text .text.*)
 .text.spic_wait_idle.constprop.0
                0x000000001ff517ea       0x28 C:\Users\cmshe\AppData\Local\Temp\cwsl_A_sample.elf.eOOQKS.ltrans0.ltrans.o
 .text.spic_general_mode_config.constprop.0
                0x000000001ff51812      0x152 C:\Users\cmshe\AppData\Local\Temp\cwsl_A_sample.elf.eOOQKS.ltrans0.ltrans.o
 .text.CI0124.constprop.0
                0x000000001ff51964       0x50 C:\Users\cmshe\AppData\Local\Temp\cwsl_A_sample.elf.eOOQKS.ltrans0.ltrans.o
 .text.cmp_str  0x000000001ff519b4       0x10 C:\Users\cmshe\AppData\Local\Temp\cwsl_A_sample.elf.eOOQKS.ltrans0.ltrans.o
 .text.CI0134   0x000000001ff519c4       0x30 C:\Users\cmshe\AppData\Local\Temp\cwsl_A_sample.elf.eOOQKS.ltrans0.ltrans.o
 .text.getpdfinfo
                0x000000001ff519f4       0x1e C:\Users\cmshe\AppData\Local\Temp\cwsl_A_sample.elf.eOOQKS.ltrans0.ltrans.o
 .text.CI0075   0x000000001ff51a12       0x24 C:\Users\cmshe\AppData\Local\Temp\cwsl_A_sample.elf.eOOQKS.ltrans0.ltrans.o
 .text.cwslvoice_delete.part.0
                0x000000001ff51a36       0xde C:\Users\cmshe\AppData\Local\Temp\cwsl_A_sample.elf.eOOQKS.ltrans0.ltrans.o
 .text.CI0153   0x000000001ff51b14       0x36 C:\Users\cmshe\AppData\Local\Temp\cwsl_A_sample.elf.eOOQKS.ltrans0.ltrans.o
 .text.CI0121   0x000000001ff51b4a       0x36 C:\Users\cmshe\AppData\Local\Temp\cwsl_A_sample.elf.eOOQKS.ltrans0.ltrans.o
 .text.CI0111   0x000000001ff51b80       0x38 C:\Users\cmshe\AppData\Local\Temp\cwsl_A_sample.elf.eOOQKS.ltrans0.ltrans.o
 .text.CI0041   0x000000001ff51bb8       0x4a C:\Users\cmshe\AppData\Local\Temp\cwsl_A_sample.elf.eOOQKS.ltrans0.ltrans.o
 .text.cwslvoice_delete_sn
                0x000000001ff51c02       0x90 C:\Users\cmshe\AppData\Local\Temp\cwsl_A_sample.elf.eOOQKS.ltrans0.ltrans.o
 .text.CI0031   0x000000001ff51c92       0xbe C:\Users\cmshe\AppData\Local\Temp\cwsl_A_sample.elf.eOOQKS.ltrans0.ltrans.o
 .text.get_elem_tail
                0x000000001ff51d50       0x28 C:\Users\cmshe\AppData\Local\Temp\cwsl_A_sample.elf.eOOQKS.ltrans0.ltrans.o
 .text.CI0002.isra.0
                0x000000001ff51d78       0xd2 C:\Users\cmshe\AppData\Local\Temp\cwsl_A_sample.elf.eOOQKS.ltrans0.ltrans.o
 .text.CI0059   0x000000001ff51e4a       0x42 C:\Users\cmshe\AppData\Local\Temp\cwsl_A_sample.elf.eOOQKS.ltrans0.ltrans.o
 .text.CI0074.lto_priv.0
                0x000000001ff51e8c        0xa C:\Users\cmshe\AppData\Local\Temp\cwsl_A_sample.elf.eOOQKS.ltrans0.ltrans.o
                0x000000001ff51e8c                CI0074.lto_priv.0
 .text.CI0056.lto_priv.0
                0x000000001ff51e96       0x36 C:\Users\cmshe\AppData\Local\Temp\cwsl_A_sample.elf.eOOQKS.ltrans0.ltrans.o
                0x000000001ff51e96                CI0056.lto_priv.0
 .text.CI0055.lto_priv.0
                0x000000001ff51ecc       0x2c C:\Users\cmshe\AppData\Local\Temp\cwsl_A_sample.elf.eOOQKS.ltrans0.ltrans.o
                0x000000001ff51ecc                CI0055.lto_priv.0
 .text.CI0083.lto_priv.0
                0x000000001ff51ef8       0x34 C:\Users\cmshe\AppData\Local\Temp\cwsl_A_sample.elf.eOOQKS.ltrans0.ltrans.o
                0x000000001ff51ef8                CI0083.lto_priv.0
 .text.IsSilencePdf
                0x000000001ff51f2c       0x34 C:\Users\cmshe\AppData\Local\Temp\cwsl_A_sample.elf.eOOQKS.ltrans0.ltrans.o
 .text.IsSilenceSrcPdf
                0x000000001ff51f60       0x2e C:\Users\cmshe\AppData\Local\Temp\cwsl_A_sample.elf.eOOQKS.ltrans0.ltrans.o
 .text.CI0013   0x000000001ff51f8e       0x5e C:\Users\cmshe\AppData\Local\Temp\cwsl_A_sample.elf.eOOQKS.ltrans0.ltrans.o
 .text.sort_cmp
                0x000000001ff51fec       0x14 C:\Users\cmshe\AppData\Local\Temp\cwsl_A_sample.elf.eOOQKS.ltrans0.ltrans.o
 .text.CI0043   0x000000001ff52000       0x52 C:\Users\cmshe\AppData\Local\Temp\cwsl_A_sample.elf.eOOQKS.ltrans0.ltrans.o
 .text.CI0042   0x000000001ff52052       0x50 C:\Users\cmshe\AppData\Local\Temp\cwsl_A_sample.elf.eOOQKS.ltrans0.ltrans.o
 .text.CI0130   0x000000001ff520a2       0x20 C:\Users\cmshe\AppData\Local\Temp\cwsl_A_sample.elf.eOOQKS.ltrans0.ltrans.o
 .text.CI0150   0x000000001ff520c2       0x28 C:\Users\cmshe\AppData\Local\Temp\cwsl_A_sample.elf.eOOQKS.ltrans0.ltrans.o
 .text.CI0097   0x000000001ff520ea       0xfe C:\Users\cmshe\AppData\Local\Temp\cwsl_A_sample.elf.eOOQKS.ltrans0.ltrans.o
 .text.CI0057   0x000000001ff521e8       0xf0 C:\Users\cmshe\AppData\Local\Temp\cwsl_A_sample.elf.eOOQKS.ltrans0.ltrans.o
 .text.CI0049   0x000000001ff522d8       0x4e C:\Users\cmshe\AppData\Local\Temp\cwsl_A_sample.elf.eOOQKS.ltrans0.ltrans.o
 .text.CI0066   0x000000001ff52326       0x4e C:\Users\cmshe\AppData\Local\Temp\cwsl_A_sample.elf.eOOQKS.ltrans0.ltrans.o
 .text.CI0028   0x000000001ff52374       0xec C:\Users\cmshe\AppData\Local\Temp\cwsl_A_sample.elf.eOOQKS.ltrans0.ltrans.o
 .text.cwslreg_cmd_rlt
                0x000000001ff52460       0x2c C:\Users\cmshe\AppData\Local\Temp\cwsl_A_sample.elf.eOOQKS.ltrans0.ltrans.o
 .text.get_cwslword_path
                0x000000001ff5248c      0x10c C:\Users\cmshe\AppData\Local\Temp\cwsl_A_sample.elf.eOOQKS.ltrans0.ltrans.o
 .text.find_bestlen_voice
                0x000000001ff52598       0x48 C:\Users\cmshe\AppData\Local\Temp\cwsl_A_sample.elf.eOOQKS.ltrans0.ltrans.o
 .text.getvoice
                0x000000001ff525e0       0x6a C:\Users\cmshe\AppData\Local\Temp\cwsl_A_sample.elf.eOOQKS.ltrans0.ltrans.o
 .text.rc_callee_deal_one_frm_fft_rslt_callback
                0x000000001ff5264a        0x2 C:\Users\cmshe\AppData\Local\Temp\cwsl_A_sample.elf.eOOQKS.ltrans0.ltrans.o
                0x000000001ff5264a                rc_callee_deal_one_frm_fft_rslt_callback
 .text.rc_callee_audio_deal_one_frm_callback
                0x000000001ff5264c        0x2 C:\Users\cmshe\AppData\Local\Temp\cwsl_A_sample.elf.eOOQKS.ltrans0.ltrans.o
                0x000000001ff5264c                rc_callee_audio_deal_one_frm_callback
 .text.spic_write_by_cpu.constprop.0
                0x000000001ff5264e       0xc2 C:\Users\cmshe\AppData\Local\Temp\cwsl_A_sample.elf.eOOQKS.ltrans0.ltrans.o
 .text.send_nn_end_msg_to_cwsl
                0x000000001ff52710       0x2e C:\Users\cmshe\AppData\Local\Temp\cwsl_A_sample.elf.eOOQKS.ltrans0.ltrans.o
 .text.rc_caller_vad_rollback_frm_cfg
                0x000000001ff5273e       0x40 C:\Users\cmshe\AppData\Local\Temp\cwsl_A_sample.elf.eOOQKS.ltrans0.ltrans.o
 .text.rc_caller_set_agc_gain_enable
                0x000000001ff5277e       0x42 C:\Users\cmshe\AppData\Local\Temp\cwsl_A_sample.elf.eOOQKS.ltrans0.ltrans.o
 .text.CI0122.part.0
                0x000000001ff527c0       0xa6 C:\Users\cmshe\AppData\Local\Temp\cwsl_A_sample.elf.eOOQKS.ltrans0.ltrans.o
 .text.push_cwslvoice
                0x000000001ff52866      0x110 C:\Users\cmshe\AppData\Local\Temp\cwsl_A_sample.elf.eOOQKS.ltrans0.ltrans.o
 .text.CI0136   0x000000001ff52976       0x8e C:\Users\cmshe\AppData\Local\Temp\cwsl_A_sample.elf.eOOQKS.ltrans0.ltrans.o
 .text.CI0116.constprop.0
                0x000000001ff52a04       0xa2 C:\Users\cmshe\AppData\Local\Temp\cwsl_A_sample.elf.eOOQKS.ltrans0.ltrans.o
 .text.CI0022   0x000000001ff52aa6       0x6e C:\Users\cmshe\AppData\Local\Temp\cwsl_A_sample.elf.eOOQKS.ltrans0.ltrans.o
 .text.CI0069   0x000000001ff52b14      0x2ae C:\Users\cmshe\AppData\Local\Temp\cwsl_A_sample.elf.eOOQKS.ltrans0.ltrans.o
 .text.rc_callee_malloc_in_host
                0x000000001ff52dc2        0xe C:\Users\cmshe\AppData\Local\Temp\cwsl_A_sample.elf.eOOQKS.ltrans0.ltrans.o
                0x000000001ff52dc2                rc_callee_malloc_in_host
 .text.CI0080   0x000000001ff52dd0       0x5a C:\Users\cmshe\AppData\Local\Temp\cwsl_A_sample.elf.eOOQKS.ltrans0.ltrans.o
 .text.cwsl_tm_del_by_cmd_id
                0x000000001ff52e2a       0xcc C:\Users\cmshe\AppData\Local\Temp\cwsl_A_sample.elf.eOOQKS.ltrans0.ltrans.o
 .text.rc_callee_get_current_model_addr
                0x000000001ff52ef6       0x14 C:\Users\cmshe\AppData\Local\Temp\cwsl_A_sample.elf.eOOQKS.ltrans0.ltrans.o
                0x000000001ff52ef6                rc_callee_get_current_model_addr
 .text.push_pdfinfo
                0x000000001ff52f0a      0x194 C:\Users\cmshe\AppData\Local\Temp\cwsl_A_sample.elf.eOOQKS.ltrans0.ltrans.o
 .text.find_best_path
                0x000000001ff5309e      0x296 C:\Users\cmshe\AppData\Local\Temp\cwsl_A_sample.elf.eOOQKS.ltrans0.ltrans.o
 .text.pdfid2cwslword_clear
                0x000000001ff53334       0x72 C:\Users\cmshe\AppData\Local\Temp\cwsl_A_sample.elf.eOOQKS.ltrans0.ltrans.o
 .text.pdfinfo_mem_free
                0x000000001ff533a6       0x8c C:\Users\cmshe\AppData\Local\Temp\cwsl_A_sample.elf.eOOQKS.ltrans0.ltrans.o
 .text.pdfinfo_mem_alloc
                0x000000001ff53432       0x84 C:\Users\cmshe\AppData\Local\Temp\cwsl_A_sample.elf.eOOQKS.ltrans0.ltrans.o
 .text.eclic_set_irq_priority.constprop.0
                0x000000001ff534b6       0x3a C:\Users\cmshe\AppData\Local\Temp\cwsl_A_sample.elf.eOOQKS.ltrans0.ltrans.o
                0x000000001ff534b6                eclic_set_irq_priority.constprop.0
 .text.dpmu_pll_config.constprop.0
                0x000000001ff534f0      0x15c C:\Users\cmshe\AppData\Local\Temp\cwsl_A_sample.elf.eOOQKS.ltrans0.ltrans.o
                0x000000001ff534f0                dpmu_pll_config.constprop.0
 .text.spic_read_by_cpu.constprop.0
                0x000000001ff5364c      0x10a C:\Users\cmshe\AppData\Local\Temp\cwsl_A_sample.elf.eOOQKS.ltrans0.ltrans.o
                0x000000001ff5364c                spic_read_by_cpu.constprop.0
 .text.spic_read_status_register.constprop.0
                0x000000001ff53756       0x3a C:\Users\cmshe\AppData\Local\Temp\cwsl_A_sample.elf.eOOQKS.ltrans0.ltrans.o
                0x000000001ff53756                spic_read_status_register.constprop.0
 .text.spic_check_busy.constprop.0
                0x000000001ff53790       0x36 C:\Users\cmshe\AppData\Local\Temp\cwsl_A_sample.elf.eOOQKS.ltrans0.ltrans.o
                0x000000001ff53790                spic_check_busy.constprop.0
 .text.spic_send_cmd.constprop.0
                0x000000001ff537c6       0x40 C:\Users\cmshe\AppData\Local\Temp\cwsl_A_sample.elf.eOOQKS.ltrans0.ltrans.o
                0x000000001ff537c6                spic_send_cmd.constprop.0
 .text.spic_write_status_register.constprop.0
                0x000000001ff53806       0xb2 C:\Users\cmshe\AppData\Local\Temp\cwsl_A_sample.elf.eOOQKS.ltrans0.ltrans.o
                0x000000001ff53806                spic_write_status_register.constprop.0
 .text.spic_clk_phase_set.constprop.0
                0x000000001ff538b8       0x40 C:\Users\cmshe\AppData\Local\Temp\cwsl_A_sample.elf.eOOQKS.ltrans0.ltrans.o
                0x000000001ff538b8                spic_clk_phase_set.constprop.0
 .text.spic_releasepowerdown.constprop.0
                0x000000001ff538f8       0x48 C:\Users\cmshe\AppData\Local\Temp\cwsl_A_sample.elf.eOOQKS.ltrans0.ltrans.o
                0x000000001ff538f8                spic_releasepowerdown.constprop.0
 .text.spic_powerdown.constprop.0
                0x000000001ff53940       0x28 C:\Users\cmshe\AppData\Local\Temp\cwsl_A_sample.elf.eOOQKS.ltrans0.ltrans.o
                0x000000001ff53940                spic_powerdown.constprop.0
 .text.xQueueGenericSendFromISR.constprop.0
                0x000000001ff53968       0x72 C:\Users\cmshe\AppData\Local\Temp\cwsl_A_sample.elf.eOOQKS.ltrans0.ltrans.o
                0x000000001ff53968                xQueueGenericSendFromISR.constprop.0
 .text.xTimerPendFunctionCallFromISR.constprop.0
                0x000000001ff539da       0x26 C:\Users\cmshe\AppData\Local\Temp\cwsl_A_sample.elf.eOOQKS.ltrans0.ltrans.o
                0x000000001ff539da                xTimerPendFunctionCallFromISR.constprop.0
 .text.pause_play.constprop.0
                0x000000001ff53a00       0x36 C:\Users\cmshe\AppData\Local\Temp\cwsl_A_sample.elf.eOOQKS.ltrans0.ltrans.o
 .text.xQueueCreateMutex.constprop.0
                0x000000001ff53a36       0x2e C:\Users\cmshe\AppData\Local\Temp\cwsl_A_sample.elf.eOOQKS.ltrans0.ltrans.o
                0x000000001ff53a36                xQueueCreateMutex.constprop.0
 .text.xTaskCreate.constprop.0
                0x000000001ff53a64      0x1f8 C:\Users\cmshe\AppData\Local\Temp\cwsl_A_sample.elf.eOOQKS.ltrans0.ltrans.o
                0x000000001ff53a64                xTaskCreate.constprop.0
 .text.xTimerGenericCommand.constprop.0
                0x000000001ff53c5c       0x2e C:\Users\cmshe\AppData\Local\Temp\cwsl_A_sample.elf.eOOQKS.ltrans0.ltrans.o
                0x000000001ff53c5c                xTimerGenericCommand.constprop.0
 .text.UartPollingSenddone.constprop.0
                0x000000001ff53c8a        0xe C:\Users\cmshe\AppData\Local\Temp\cwsl_A_sample.elf.eOOQKS.ltrans0.ltrans.o
                0x000000001ff53c8a                UartPollingSenddone.constprop.0
 .text.dichotomy_find.part.0.constprop.0
                0x000000001ff53c98       0x3e C:\Users\cmshe\AppData\Local\Temp\cwsl_A_sample.elf.eOOQKS.ltrans0.ltrans.o
                0x000000001ff53c98                dichotomy_find.part.0.constprop.0
 .text.pause_audio_play_prompt.constprop.0
                0x000000001ff53cd6       0x82 C:\Users\cmshe\AppData\Local\Temp\cwsl_A_sample.elf.eOOQKS.ltrans0.ltrans.o
                0x000000001ff53cd6                pause_audio_play_prompt.constprop.0
 .text.audio_play_queue_send.constprop.0
                0x000000001ff53d58       0x18 C:\Users\cmshe\AppData\Local\Temp\cwsl_A_sample.elf.eOOQKS.ltrans0.ltrans.o
                0x000000001ff53d58                audio_play_queue_send.constprop.0
 .text.audio_play_hw_stop.constprop.0
                0x000000001ff53d70      0x100 C:\Users\cmshe\AppData\Local\Temp\cwsl_A_sample.elf.eOOQKS.ltrans0.ltrans.o
                0x000000001ff53d70                audio_play_hw_stop.constprop.0
 .text.on_cwsl_init.constprop.0
                0x000000001ff53e70       0x24 C:\Users\cmshe\AppData\Local\Temp\cwsl_A_sample.elf.eOOQKS.ltrans0.ltrans.o
                0x000000001ff53e70                on_cwsl_init.constprop.0
 .text.rc_caller_set_ssp_registe.constprop.0
                0x000000001ff53e94       0x52 C:\Users\cmshe\AppData\Local\Temp\cwsl_A_sample.elf.eOOQKS.ltrans0.ltrans.o
                0x000000001ff53e94                rc_caller_set_ssp_registe.constprop.0
 .text.set_state_enter_wakeup.constprop.0
                0x000000001ff53ee6       0x4a C:\Users\cmshe\AppData\Local\Temp\cwsl_A_sample.elf.eOOQKS.ltrans0.ltrans.o
                0x000000001ff53ee6                set_state_enter_wakeup.constprop.0
 .text.cwsl_reg_word.constprop.0
                0x000000001ff53f30       0x40 C:\Users\cmshe\AppData\Local\Temp\cwsl_A_sample.elf.eOOQKS.ltrans0.ltrans.o
                0x000000001ff53f30                cwsl_reg_word.constprop.0
 .text.asrGetCmdWordsAndScore.constprop.0
                0x000000001ff53f70       0x30 C:\Users\cmshe\AppData\Local\Temp\cwsl_A_sample.elf.eOOQKS.ltrans0.ltrans.o
                0x000000001ff53f70                asrGetCmdWordsAndScore.constprop.0
 .text.asrStart.constprop.0
                0x000000001ff53fa0       0x12 C:\Users\cmshe\AppData\Local\Temp\cwsl_A_sample.elf.eOOQKS.ltrans0.ltrans.o
                0x000000001ff53fa0                asrStart.constprop.0
 .text.CI0051.constprop.0
                0x000000001ff53fb2       0xa8 C:\Users\cmshe\AppData\Local\Temp\cwsl_A_sample.elf.eOOQKS.ltrans0.ltrans.o
                0x000000001ff53fb2                CI0051.constprop.0
 .text.getdata_fromfmt.part.0.constprop.0
                0x000000001ff5405a       0x30 C:\Users\cmshe\AppData\Local\Temp\cwsl_A_sample.elf.eOOQKS.ltrans0.ltrans.o
                0x000000001ff5405a                getdata_fromfmt.part.0.constprop.0
 .text.get_special_symbols_count.constprop.0
                0x000000001ff5408a       0x56 C:\Users\cmshe\AppData\Local\Temp\cwsl_A_sample.elf.eOOQKS.ltrans0.ltrans.o
                0x000000001ff5408a                get_special_symbols_count.constprop.0
 .text.asrSetWordsTag
                0x000000001ff540e0       0x1e C:\Users\cmshe\AppData\Local\Temp\cwsl_A_sample.elf.eOOQKS.ltrans0.ltrans.o
                0x000000001ff540e0                asrSetWordsTag
 .text.asrSetBeam
                0x000000001ff540fe       0x58 C:\Users\cmshe\AppData\Local\Temp\cwsl_A_sample.elf.eOOQKS.ltrans0.ltrans.o
                0x000000001ff540fe                asrSetBeam
 .text.getpdfinfopriors
                0x000000001ff54156       0x3e C:\Users\cmshe\AppData\Local\Temp\cwsl_A_sample.elf.eOOQKS.ltrans0.ltrans.o
                0x000000001ff54156                getpdfinfopriors
 .text.cwslvoice_update2mem
                0x000000001ff54194       0x8e C:\Users\cmshe\AppData\Local\Temp\cwsl_A_sample.elf.eOOQKS.ltrans0.ltrans.o
                0x000000001ff54194                cwslvoice_update2mem
 .text.CI0081.isra.0
                0x000000001ff54222     0x16da C:\Users\cmshe\AppData\Local\Temp\cwsl_A_sample.elf.eOOQKS.ltrans0.ltrans.o
 .text.CI0009   0x000000001ff558fc     0x180a C:\Users\cmshe\AppData\Local\Temp\cwsl_A_sample.elf.eOOQKS.ltrans0.ltrans.o
 .text.CI0072.lto_priv.0
                0x000000001ff57106       0x50 C:\Users\cmshe\AppData\Local\Temp\cwsl_A_sample.elf.eOOQKS.ltrans0.ltrans.o
                0x000000001ff57106                CI0072.lto_priv.0
 .text.CI0114.lto_priv.0
                0x000000001ff57156       0x78 C:\Users\cmshe\AppData\Local\Temp\cwsl_A_sample.elf.eOOQKS.ltrans0.ltrans.o
                0x000000001ff57156                CI0114.lto_priv.0
 .text.CI0064.lto_priv.0
                0x000000001ff571ce       0x3a C:\Users\cmshe\AppData\Local\Temp\cwsl_A_sample.elf.eOOQKS.ltrans0.ltrans.o
                0x000000001ff571ce                CI0064.lto_priv.0
 .text.check_cwsl_cmd.constprop.0
                0x000000001ff57208       0x2e C:\Users\cmshe\AppData\Local\Temp\cwsl_A_sample.elf.eOOQKS.ltrans0.ltrans.o
                0x000000001ff57208                check_cwsl_cmd.constprop.0
 .text.get_wi_nbest_result.constprop.0
                0x000000001ff57236       0x4c C:\Users\cmshe\AppData\Local\Temp\cwsl_A_sample.elf.eOOQKS.ltrans0.ltrans.o
 .text.CI0060.lto_priv.0
                0x000000001ff57282      0x312 C:\Users\cmshe\AppData\Local\Temp\cwsl_A_sample.elf.eOOQKS.ltrans0.ltrans.o
                0x000000001ff57282                CI0060.lto_priv.0
 .text.CI0054.lto_priv.0
                0x000000001ff57594      0x30c C:\Users\cmshe\AppData\Local\Temp\cwsl_A_sample.elf.eOOQKS.ltrans0.ltrans.o
                0x000000001ff57594                CI0054.lto_priv.0
 .text.CI0152   0x000000001ff578a0      0x386 C:\Users\cmshe\AppData\Local\Temp\cwsl_A_sample.elf.eOOQKS.ltrans0.ltrans.o
 .text.CI0096   0x000000001ff57c26      0x1e6 C:\Users\cmshe\AppData\Local\Temp\cwsl_A_sample.elf.eOOQKS.ltrans0.ltrans.o
 .text.CI0098   0x000000001ff57e0c       0xcc C:\Users\cmshe\AppData\Local\Temp\cwsl_A_sample.elf.eOOQKS.ltrans0.ltrans.o
 .text.CI0118   0x000000001ff57ed8      0x24a C:\Users\cmshe\AppData\Local\Temp\cwsl_A_sample.elf.eOOQKS.ltrans0.ltrans.o
 .text.CI0001.lto_priv.0
                0x000000001ff58122       0x5c C:\Users\cmshe\AppData\Local\Temp\cwsl_A_sample.elf.eOOQKS.ltrans0.ltrans.o
                0x000000001ff58122                CI0001.lto_priv.0
 .text.CI0036.lto_priv.0
                0x000000001ff5817e      0x4ea C:\Users\cmshe\AppData\Local\Temp\cwsl_A_sample.elf.eOOQKS.ltrans0.ltrans.o
                0x000000001ff5817e                CI0036.lto_priv.0
 .text.CI0120.lto_priv.0
                0x000000001ff58668      0x2f4 C:\Users\cmshe\AppData\Local\Temp\cwsl_A_sample.elf.eOOQKS.ltrans0.ltrans.o
                0x000000001ff58668                CI0120.lto_priv.0
 .text.CI0090.lto_priv.0
                0x000000001ff5895c       0x30 C:\Users\cmshe\AppData\Local\Temp\cwsl_A_sample.elf.eOOQKS.ltrans0.ltrans.o
                0x000000001ff5895c                CI0090.lto_priv.0
 .text.cwsl_tm_get_reg_tpl_number.part.0
                0x000000001ff5898c       0x34 C:\Users\cmshe\AppData\Local\Temp\cwsl_A_sample.elf.eOOQKS.ltrans0.ltrans.o
                0x000000001ff5898c                cwsl_tm_get_reg_tpl_number.part.0
 .text.cwsl_reg_record_start
                0x000000001ff589c0       0x22 C:\Users\cmshe\AppData\Local\Temp\cwsl_A_sample.elf.eOOQKS.ltrans0.ltrans.o
                0x000000001ff589c0                cwsl_reg_record_start
 .text.cwsl_recognize_start.constprop.0
                0x000000001ff589e2       0x2c C:\Users\cmshe\AppData\Local\Temp\cwsl_A_sample.elf.eOOQKS.ltrans0.ltrans.o
                0x000000001ff589e2                cwsl_recognize_start.constprop.0
 .text.cwsl_delete_word
                0x000000001ff58a0e       0x42 C:\Users\cmshe\AppData\Local\Temp\cwsl_A_sample.elf.eOOQKS.ltrans0.ltrans.o
                0x000000001ff58a0e                cwsl_delete_word
 .text.cwslreg_cmd_save
                0x000000001ff58a50       0x6e C:\Users\cmshe\AppData\Local\Temp\cwsl_A_sample.elf.eOOQKS.ltrans0.ltrans.o
                0x000000001ff58a50                cwslreg_cmd_save
 .text.cwslreg_cmd_clear
                0x000000001ff58abe       0x18 C:\Users\cmshe\AppData\Local\Temp\cwsl_A_sample.elf.eOOQKS.ltrans0.ltrans.o
                0x000000001ff58abe                cwslreg_cmd_clear
 .text.tpl_path_clear
                0x000000001ff58ad6       0x4e C:\Users\cmshe\AppData\Local\Temp\cwsl_A_sample.elf.eOOQKS.ltrans0.ltrans.o
                0x000000001ff58ad6                tpl_path_clear
 .text.rc_caller_set_freqvad_start_para_gain
                0x000000001ff58b24       0x40 C:\Users\cmshe\AppData\Local\Temp\cwsl_A_sample.elf.eOOQKS.ltrans0.ltrans.o
                0x000000001ff58b24                rc_caller_set_freqvad_start_para_gain
 .text.nuclear_com_send.constprop.0
                0x000000001ff58b64       0xba C:\Users\cmshe\AppData\Local\Temp\cwsl_A_sample.elf.eOOQKS.ltrans0.ltrans.o
                0x000000001ff58b64                nuclear_com_send.constprop.0
 .text.post_erase_flash.constprop.0
                0x000000001ff58c1e       0x70 C:\Users\cmshe\AppData\Local\Temp\cwsl_A_sample.elf.eOOQKS.ltrans0.ltrans.o
                0x000000001ff58c1e                post_erase_flash.constprop.0
 .text.cm_get_pcm_buffer.constprop.0
                0x000000001ff58c8e       0x90 C:\Users\cmshe\AppData\Local\Temp\cwsl_A_sample.elf.eOOQKS.ltrans0.ltrans.o
                0x000000001ff58c8e                cm_get_pcm_buffer.constprop.0
 .text.cm_write_codec.constprop.0
                0x000000001ff58d1e       0xa6 C:\Users\cmshe\AppData\Local\Temp\cwsl_A_sample.elf.eOOQKS.ltrans0.ltrans.o
                0x000000001ff58d1e                cm_write_codec.constprop.0
 .text.IISDMA_ChannelIntENConfig.constprop.0
                0x000000001ff58dc4       0x58 C:\Users\cmshe\AppData\Local\Temp\cwsl_A_sample.elf.eOOQKS.ltrans0.ltrans.o
                0x000000001ff58dc4                IISDMA_ChannelIntENConfig.constprop.0
 .text.cm_release_pcm_buffer.constprop.0
                0x000000001ff58e1c       0x6c C:\Users\cmshe\AppData\Local\Temp\cwsl_A_sample.elf.eOOQKS.ltrans0.ltrans.o
                0x000000001ff58e1c                cm_release_pcm_buffer.constprop.0
 .text.prompt_play_by_cmd_handle.constprop.0
                0x000000001ff58e88      0x1b4 C:\Users\cmshe\AppData\Local\Temp\cwsl_A_sample.elf.eOOQKS.ltrans0.ltrans.o
                0x000000001ff58e88                prompt_play_by_cmd_handle.constprop.0
 .text.prompt_play_by_cmd_id.constprop.0
                0x000000001ff5903c       0x1c C:\Users\cmshe\AppData\Local\Temp\cwsl_A_sample.elf.eOOQKS.ltrans0.ltrans.o
                0x000000001ff5903c                prompt_play_by_cmd_id.constprop.0
 .text.cwsl_app_process_asr_msg.constprop.0
                0x000000001ff59058      0x130 C:\Users\cmshe\AppData\Local\Temp\cwsl_A_sample.elf.eOOQKS.ltrans0.ltrans.o
                0x000000001ff59058                cwsl_app_process_asr_msg.constprop.0
 .text.nn_output_callback
                0x000000001ff59188      0x14a C:\Users\cmshe\AppData\Local\Temp\cwsl_A_sample.elf.eOOQKS.ltrans0.ltrans.o
                0x000000001ff59188                nn_output_callback
 .text.rc_callee_free_in_host
                0x000000001ff592d2       0x40 C:\Users\cmshe\AppData\Local\Temp\cwsl_A_sample.elf.eOOQKS.ltrans0.ltrans.o
                0x000000001ff592d2                rc_callee_free_in_host
 .text.get_g_prun_tab.constprop.0
                0x000000001ff59312       0x1c C:\Users\cmshe\AppData\Local\Temp\cwsl_A_sample.elf.eOOQKS.ltrans0.ltrans.o
                0x000000001ff59312                get_g_prun_tab.constprop.0
 .text.send_vadcfg_vadend_frames_msg.constprop.0
                0x000000001ff5932e       0x20 C:\Users\cmshe\AppData\Local\Temp\cwsl_A_sample.elf.eOOQKS.ltrans0.ltrans.o
                0x000000001ff5932e                send_vadcfg_vadend_frames_msg.constprop.0
 .text.send_result_to_usertask.constprop.0
                0x000000001ff5934e      0x22e C:\Users\cmshe\AppData\Local\Temp\cwsl_A_sample.elf.eOOQKS.ltrans0.ltrans.o
                0x000000001ff5934e                send_result_to_usertask.constprop.0
 .text.asrtop_asr_system_create_model.constprop.0
                0x000000001ff5957c       0x58 C:\Users\cmshe\AppData\Local\Temp\cwsl_A_sample.elf.eOOQKS.ltrans0.ltrans.o
                0x000000001ff5957c                asrtop_asr_system_create_model.constprop.0
 .text.update_lm_foraddcwsl
                0x000000001ff595d4       0x34 C:\Users\cmshe\AppData\Local\Temp\cwsl_A_sample.elf.eOOQKS.ltrans0.ltrans.o
 .text.cwsl_delete_tpl_sn
                0x000000001ff59608       0x14 C:\Users\cmshe\AppData\Local\Temp\cwsl_A_sample.elf.eOOQKS.ltrans0.ltrans.o
                0x000000001ff59608                cwsl_delete_tpl_sn
 .text.cwsl_manage_task
                0x000000001ff5961c      0x8f4 C:\Users\cmshe\AppData\Local\Temp\cwsl_A_sample.elf.eOOQKS.ltrans0.ltrans.o
                0x000000001ff5961c                cwsl_manage_task
 .text.efuse_read_data
                0x000000001ff59f10        0xe C:\Users\cmshe\AppData\Local\Temp\cwsl_A_sample.elf.eOOQKS.ltrans1.ltrans.o
 .text.efuse_check_int_state
                0x000000001ff59f1e       0x14 C:\Users\cmshe\AppData\Local\Temp\cwsl_A_sample.elf.eOOQKS.ltrans1.ltrans.o
 .text.efuse_int_clear
                0x000000001ff59f32       0x12 C:\Users\cmshe\AppData\Local\Temp\cwsl_A_sample.elf.eOOQKS.ltrans1.ltrans.o
 .text.efuse_check_idle
                0x000000001ff59f44        0xe C:\Users\cmshe\AppData\Local\Temp\cwsl_A_sample.elf.eOOQKS.ltrans1.ltrans.o
 .text.efuse_read_start
                0x000000001ff59f52        0xe C:\Users\cmshe\AppData\Local\Temp\cwsl_A_sample.elf.eOOQKS.ltrans1.ltrans.o
 .text.efuse_clk_freq_sel
                0x000000001ff59f60       0x10 C:\Users\cmshe\AppData\Local\Temp\cwsl_A_sample.elf.eOOQKS.ltrans1.ltrans.o
 .text.scu_unlock_reset_config
                0x000000001ff59f70       0x12 C:\Users\cmshe\AppData\Local\Temp\cwsl_A_sample.elf.eOOQKS.ltrans1.ltrans.o
 .text.scu_unlock_clk_config
                0x000000001ff59f82       0x12 C:\Users\cmshe\AppData\Local\Temp\cwsl_A_sample.elf.eOOQKS.ltrans1.ltrans.o
 .text.prvTaskExitError.lto_priv.0
                0x000000001ff59f94       0x16 C:\Users\cmshe\AppData\Local\Temp\cwsl_A_sample.elf.eOOQKS.ltrans1.ltrans.o
                0x000000001ff59f94                prvTaskExitError.lto_priv.0
 .text.decide_clear
                0x000000001ff59faa       0x16 C:\Users\cmshe\AppData\Local\Temp\cwsl_A_sample.elf.eOOQKS.ltrans1.ltrans.o
 .text.asrbest_result_clear
                0x000000001ff59fc0       0x40 C:\Users\cmshe\AppData\Local\Temp\cwsl_A_sample.elf.eOOQKS.ltrans1.ltrans.o
 .text.get_word_start_end_confidence
                0x000000001ff5a000       0x30 C:\Users\cmshe\AppData\Local\Temp\cwsl_A_sample.elf.eOOQKS.ltrans1.ltrans.o
 .text.asr_result_clear
                0x000000001ff5a030       0x2c C:\Users\cmshe\AppData\Local\Temp\cwsl_A_sample.elf.eOOQKS.ltrans1.ltrans.o
 .text.decoder_task_timeout_deal
                0x000000001ff5a05c       0x1c C:\Users\cmshe\AppData\Local\Temp\cwsl_A_sample.elf.eOOQKS.ltrans1.ltrans.o
 .text.audio_deal_one_frm_callback
                0x000000001ff5a078        0x2 C:\Users\cmshe\AppData\Local\Temp\cwsl_A_sample.elf.eOOQKS.ltrans1.ltrans.o
                0x000000001ff5a078                audio_deal_one_frm_callback
 .text.cwsl_play_done_callback_default
                0x000000001ff5a07a        0x2 C:\Users\cmshe\AppData\Local\Temp\cwsl_A_sample.elf.eOOQKS.ltrans1.ltrans.o
                0x000000001ff5a07a                cwsl_play_done_callback_default.lto_priv.0
 .text.uart_send_bytes
                0x000000001ff5a07c       0x22 C:\Users\cmshe\AppData\Local\Temp\cwsl_A_sample.elf.eOOQKS.ltrans1.ltrans.o
 .text.GPIO_IRQ_Default_proc
                0x000000001ff5a09e       0x46 C:\Users\cmshe\AppData\Local\Temp\cwsl_A_sample.elf.eOOQKS.ltrans1.ltrans.o
 .text.icodec_config
                0x000000001ff5a0e4      0x112 C:\Users\cmshe\AppData\Local\Temp\cwsl_A_sample.elf.eOOQKS.ltrans1.ltrans.o
 .text.icodec_stop
                0x000000001ff5a1f6       0x18 C:\Users\cmshe\AppData\Local\Temp\cwsl_A_sample.elf.eOOQKS.ltrans1.ltrans.o
 .text.inner_codec_adc_dig_gain_set
                0x000000001ff5a20e       0x44 C:\Users\cmshe\AppData\Local\Temp\cwsl_A_sample.elf.eOOQKS.ltrans1.ltrans.o
 .text.get_pga_gain_reg_data_from_db
                0x000000001ff5a252       0x3a C:\Users\cmshe\AppData\Local\Temp\cwsl_A_sample.elf.eOOQKS.ltrans1.ltrans.o
 .text.icodec_ioctl
                0x000000001ff5a28c       0xfe C:\Users\cmshe\AppData\Local\Temp\cwsl_A_sample.elf.eOOQKS.ltrans1.ltrans.o
 .text.get_combination_voice_number
                0x000000001ff5a38a       0x54 C:\Users\cmshe\AppData\Local\Temp\cwsl_A_sample.elf.eOOQKS.ltrans1.ltrans.o
 .text.wait_count_find_callback
                0x000000001ff5a3de       0x2a C:\Users\cmshe\AppData\Local\Temp\cwsl_A_sample.elf.eOOQKS.ltrans1.ltrans.o
 .text.cmd_string_find_callback
                0x000000001ff5a408       0x4a C:\Users\cmshe\AppData\Local\Temp\cwsl_A_sample.elf.eOOQKS.ltrans1.ltrans.o
 .text.cmd_id_find_callback
                0x000000001ff5a452       0x2a C:\Users\cmshe\AppData\Local\Temp\cwsl_A_sample.elf.eOOQKS.ltrans1.ltrans.o
 .text.scu_iis_codec_mclk_config
                0x000000001ff5a47c       0x8e C:\Users\cmshe\AppData\Local\Temp\cwsl_A_sample.elf.eOOQKS.ltrans1.ltrans.o
 .text.scu_iis_pad_mclk_config
                0x000000001ff5a50a       0x74 C:\Users\cmshe\AppData\Local\Temp\cwsl_A_sample.elf.eOOQKS.ltrans1.ltrans.o
 .text.scu_iis_pad_clk_config
                0x000000001ff5a57e       0x74 C:\Users\cmshe\AppData\Local\Temp\cwsl_A_sample.elf.eOOQKS.ltrans1.ltrans.o
 .text.scu_iis_clk_config
                0x000000001ff5a5f2       0xb2 C:\Users\cmshe\AppData\Local\Temp\cwsl_A_sample.elf.eOOQKS.ltrans1.ltrans.o
 .text.scu_iis_mclk_Config
                0x000000001ff5a6a4       0x92 C:\Users\cmshe\AppData\Local\Temp\cwsl_A_sample.elf.eOOQKS.ltrans1.ltrans.o
 .text.voice_probability_clear
                0x000000001ff5a736       0x24 C:\Users\cmshe\AppData\Local\Temp\cwsl_A_sample.elf.eOOQKS.ltrans1.ltrans.o
 .text.cmp_twice_confidence_clear
                0x000000001ff5a75a       0x2e C:\Users\cmshe\AppData\Local\Temp\cwsl_A_sample.elf.eOOQKS.ltrans1.ltrans.o
 .text.get_asr_result_for_final
                0x000000001ff5a788       0xd6 C:\Users\cmshe\AppData\Local\Temp\cwsl_A_sample.elf.eOOQKS.ltrans1.ltrans.o
 .text.decoder_setwordstag
                0x000000001ff5a85e       0x28 C:\Users\cmshe\AppData\Local\Temp\cwsl_A_sample.elf.eOOQKS.ltrans1.ltrans.o
 .text.decoder_set_misrecognition
                0x000000001ff5a886       0x6e C:\Users\cmshe\AppData\Local\Temp\cwsl_A_sample.elf.eOOQKS.ltrans1.ltrans.o
 .text.icodec_start
                0x000000001ff5a8f4       0x1a C:\Users\cmshe\AppData\Local\Temp\cwsl_A_sample.elf.eOOQKS.ltrans1.ltrans.o
 .text.cwsl_play_done_callback_with_start_record
                0x000000001ff5a90e        0xc C:\Users\cmshe\AppData\Local\Temp\cwsl_A_sample.elf.eOOQKS.ltrans1.ltrans.o
 .text.intercept_timer_callback
                0x000000001ff5a91a       0x20 C:\Users\cmshe\AppData\Local\Temp\cwsl_A_sample.elf.eOOQKS.ltrans1.ltrans.o
 .text.resume_asr
                0x000000001ff5a93a       0x9e C:\Users\cmshe\AppData\Local\Temp\cwsl_A_sample.elf.eOOQKS.ltrans1.ltrans.o
 .text.clean_play_queue
                0x000000001ff5a9d8       0x48 C:\Users\cmshe\AppData\Local\Temp\cwsl_A_sample.elf.eOOQKS.ltrans1.ltrans.o
 .text.cm_init  0x000000001ff5aa20       0x22 C:\Users\cmshe\AppData\Local\Temp\cwsl_A_sample.elf.eOOQKS.ltrans1.ltrans.o
 .text.dpmu_unlock_cfg_config
                0x000000001ff5aa42       0x12 C:\Users\cmshe\AppData\Local\Temp\cwsl_A_sample.elf.eOOQKS.ltrans1.ltrans.o
                0x000000001ff5aa42                dpmu_unlock_cfg_config
 .text.dpmu_config_update_en
                0x000000001ff5aa54       0x3c C:\Users\cmshe\AppData\Local\Temp\cwsl_A_sample.elf.eOOQKS.ltrans1.ltrans.o
 .text.dpmu_ldo3_lv_set
                0x000000001ff5aa90       0x34 C:\Users\cmshe\AppData\Local\Temp\cwsl_A_sample.elf.eOOQKS.ltrans1.ltrans.o
 .text.dpmu_ldo2_lv_set
                0x000000001ff5aac4       0x30 C:\Users\cmshe\AppData\Local\Temp\cwsl_A_sample.elf.eOOQKS.ltrans1.ltrans.o
 .text.dpmu_ldo1_lv_set
                0x000000001ff5aaf4       0x2a C:\Users\cmshe\AppData\Local\Temp\cwsl_A_sample.elf.eOOQKS.ltrans1.ltrans.o
 .text.dpmu_set_pmu_trim_value
                0x000000001ff5ab1e       0x34 C:\Users\cmshe\AppData\Local\Temp\cwsl_A_sample.elf.eOOQKS.ltrans1.ltrans.o
 .text.dpmu_set_io_pull
                0x000000001ff5ab52       0x40 C:\Users\cmshe\AppData\Local\Temp\cwsl_A_sample.elf.eOOQKS.ltrans1.ltrans.o
 .text.dpmu_software_reset_system_config
                0x000000001ff5ab92       0x2e C:\Users\cmshe\AppData\Local\Temp\cwsl_A_sample.elf.eOOQKS.ltrans1.ltrans.o
 .text.dpmu_get_pll_frequency
                0x000000001ff5abc0       0x3e C:\Users\cmshe\AppData\Local\Temp\cwsl_A_sample.elf.eOOQKS.ltrans1.ltrans.o
 .text.AON_EFUSE_IRQHandler
                0x000000001ff5abfe       0x72 C:\Users\cmshe\AppData\Local\Temp\cwsl_A_sample.elf.eOOQKS.ltrans1.ltrans.o
                0x000000001ff5abfe                AON_EFUSE_IRQHandler
 .text.scu_set_div_parameter
                0x000000001ff5ac70      0x2ce C:\Users\cmshe\AppData\Local\Temp\cwsl_A_sample.elf.eOOQKS.ltrans1.ltrans.o
                0x000000001ff5ac70                scu_set_div_parameter
 .text.scu_set_device_reset_release
                0x000000001ff5af3e      0x146 C:\Users\cmshe\AppData\Local\Temp\cwsl_A_sample.elf.eOOQKS.ltrans1.ltrans.o
                0x000000001ff5af3e                scu_set_device_reset_release
 .text.scu_set_device_reset
                0x000000001ff5b084      0x150 C:\Users\cmshe\AppData\Local\Temp\cwsl_A_sample.elf.eOOQKS.ltrans1.ltrans.o
                0x000000001ff5b084                scu_set_device_reset
 .text.scu_set_device_gate
                0x000000001ff5b1d4      0x1de C:\Users\cmshe\AppData\Local\Temp\cwsl_A_sample.elf.eOOQKS.ltrans1.ltrans.o
                0x000000001ff5b1d4                scu_set_device_gate
 .text.UART_BAUDRATEConfig
                0x000000001ff5b3b2       0x64 C:\Users\cmshe\AppData\Local\Temp\cwsl_A_sample.elf.eOOQKS.ltrans1.ltrans.o
 .text.icodec_init
                0x000000001ff5b416      0x39c C:\Users\cmshe\AppData\Local\Temp\cwsl_A_sample.elf.eOOQKS.ltrans1.ltrans.o
 .text.iis_clk_gate
                0x000000001ff5b7b2       0x50 C:\Users\cmshe\AppData\Local\Temp\cwsl_A_sample.elf.eOOQKS.ltrans1.ltrans.o
 .text.scu_unlock_system_config
                0x000000001ff5b802       0x12 C:\Users\cmshe\AppData\Local\Temp\cwsl_A_sample.elf.eOOQKS.ltrans1.ltrans.o
                0x000000001ff5b802                scu_unlock_system_config
 .text.MAIL_BOX_IRQHandler
                0x000000001ff5b814       0x52 C:\Users\cmshe\AppData\Local\Temp\cwsl_A_sample.elf.eOOQKS.ltrans1.ltrans.o
                0x000000001ff5b814                MAIL_BOX_IRQHandler
 .text.xPortSetInterruptMask
                0x000000001ff5b866       0x1e C:\Users\cmshe\AppData\Local\Temp\cwsl_A_sample.elf.eOOQKS.ltrans1.ltrans.o
                0x000000001ff5b866                xPortSetInterruptMask
 .text.vPortExitCritical
                0x000000001ff5b884       0x16 C:\Users\cmshe\AppData\Local\Temp\cwsl_A_sample.elf.eOOQKS.ltrans1.ltrans.o
                0x000000001ff5b884                vPortExitCritical
 .text.vPortEnterCritical
                0x000000001ff5b89a       0x20 C:\Users\cmshe\AppData\Local\Temp\cwsl_A_sample.elf.eOOQKS.ltrans1.ltrans.o
                0x000000001ff5b89a                vPortEnterCritical
 .text.vDoTaskSwitchContext
                0x000000001ff5b8ba       0x74 C:\Users\cmshe\AppData\Local\Temp\cwsl_A_sample.elf.eOOQKS.ltrans1.ltrans.o
                0x000000001ff5b8ba                vDoTaskSwitchContext
 .text.taskswitch
                0x000000001ff5b92e       0x14 C:\Users\cmshe\AppData\Local\Temp\cwsl_A_sample.elf.eOOQKS.ltrans1.ltrans.o
                0x000000001ff5b92e                taskswitch
 .text.vPortClearMSIPInt
                0x000000001ff5b942       0x12 C:\Users\cmshe\AppData\Local\Temp\cwsl_A_sample.elf.eOOQKS.ltrans1.ltrans.o
                0x000000001ff5b942                vPortClearMSIPInt
 .text.vPortSetMSIPInt
                0x000000001ff5b954       0x1a C:\Users\cmshe\AppData\Local\Temp\cwsl_A_sample.elf.eOOQKS.ltrans1.ltrans.o
                0x000000001ff5b954                vPortSetMSIPInt
 .text.vPortSysTickHandler
                0x000000001ff5b96e       0x60 C:\Users\cmshe\AppData\Local\Temp\cwsl_A_sample.elf.eOOQKS.ltrans1.ltrans.o
                0x000000001ff5b96e                vPortSysTickHandler
 .text.get_cwsl_cfd
                0x000000001ff5b9ce       0x4c C:\Users\cmshe\AppData\Local\Temp\cwsl_A_sample.elf.eOOQKS.ltrans1.ltrans.o
                0x000000001ff5b9ce                get_cwsl_cfd
 .text.asr_top_ept_cal_serve_rpmsg.lto_priv.0
                0x000000001ff5ba1a       0x1c C:\Users\cmshe\AppData\Local\Temp\cwsl_A_sample.elf.eOOQKS.ltrans1.ltrans.o
                0x000000001ff5ba1a                dnn_ept_cal_serve_rpmsg.lto_priv.0
                0x000000001ff5ba1a                asr_top_ept_cal_serve_rpmsg.lto_priv.0
                0x000000001ff5ba1a                vad_fe_ept_cal_serve_rpmsg.lto_priv.0
 .text.set_g_dnn_output2_enable
                0x000000001ff5ba36       0x1c C:\Users\cmshe\AppData\Local\Temp\cwsl_A_sample.elf.eOOQKS.ltrans1.ltrans.o
 .text.get_dnn_asr_skpnums
                0x000000001ff5ba52       0x1c C:\Users\cmshe\AppData\Local\Temp\cwsl_A_sample.elf.eOOQKS.ltrans1.ltrans.o
 .text.get_g_prun_count
                0x000000001ff5ba6e       0x1c C:\Users\cmshe\AppData\Local\Temp\cwsl_A_sample.elf.eOOQKS.ltrans1.ltrans.o
 .text.check_prun_nums
                0x000000001ff5ba8a       0x48 C:\Users\cmshe\AppData\Local\Temp\cwsl_A_sample.elf.eOOQKS.ltrans1.ltrans.o
 .text.decoder_lm_type_cfg
                0x000000001ff5bad2       0xb6 C:\Users\cmshe\AppData\Local\Temp\cwsl_A_sample.elf.eOOQKS.ltrans1.ltrans.o
 .text.get_g_asrtop_asrsys_clear_flag
                0x000000001ff5bb88       0x1c C:\Users\cmshe\AppData\Local\Temp\cwsl_A_sample.elf.eOOQKS.ltrans1.ltrans.o
 .text.set_g_asrtop_asrsys_clear_flag
                0x000000001ff5bba4       0x1c C:\Users\cmshe\AppData\Local\Temp\cwsl_A_sample.elf.eOOQKS.ltrans1.ltrans.o
 .text.decoder_bufinfo_clear
                0x000000001ff5bbc0       0x3e C:\Users\cmshe\AppData\Local\Temp\cwsl_A_sample.elf.eOOQKS.ltrans1.ltrans.o
 .text.flash_manage_ept_cal_serve_rpmsg.lto_priv.0
                0x000000001ff5bbfe       0x1c C:\Users\cmshe\AppData\Local\Temp\cwsl_A_sample.elf.eOOQKS.ltrans1.ltrans.o
                0x000000001ff5bbfe                flash_manage_ept_cal_serve_rpmsg.lto_priv.0
 .text.give_flash_sem.lto_priv.0
                0x000000001ff5bc1a       0x1e C:\Users\cmshe\AppData\Local\Temp\cwsl_A_sample.elf.eOOQKS.ltrans1.ltrans.o
                0x000000001ff5bc1a                give_flash_sem.lto_priv.0
 .text.dynmic_confidence_compute
                0x000000001ff5bc38        0x4 C:\Users\cmshe\AppData\Local\Temp\cwsl_A_sample.elf.eOOQKS.ltrans1.ltrans.o
                0x000000001ff5bc38                dynmic_confidence_compute
 .text.decoder_port_malloc
                0x000000001ff5bc3c       0x14 C:\Users\cmshe\AppData\Local\Temp\cwsl_A_sample.elf.eOOQKS.ltrans1.ltrans.o
                0x000000001ff5bc3c                decoder_port_malloc
 .text.cwsl_app_reg_word_new.part.0
                0x000000001ff5bc50       0x86 C:\Users\cmshe\AppData\Local\Temp\cwsl_A_sample.elf.eOOQKS.ltrans1.ltrans.o
                0x000000001ff5bc50                cwsl_app_reg_word_new.part.0
 .text.spic_config_init.lto_priv.0
                0x000000001ff5bcd6       0x44 C:\Users\cmshe\AppData\Local\Temp\cwsl_A_sample.elf.eOOQKS.ltrans1.ltrans.o
                0x000000001ff5bcd6                spic_config_init.lto_priv.0
 .text.AON_PC_IRQHandler
                0x000000001ff5bd1a       0x12 C:\Users\cmshe\AppData\Local\Temp\cwsl_A_sample.elf.eOOQKS.ltrans1.ltrans.o
                0x000000001ff5bd1a                AON_PC_IRQHandler
 .text.PB_IRQHandler
                0x000000001ff5bd2c       0x12 C:\Users\cmshe\AppData\Local\Temp\cwsl_A_sample.elf.eOOQKS.ltrans1.ltrans.o
                0x000000001ff5bd2c                PB_IRQHandler
 .text.PA_IRQHandler
                0x000000001ff5bd3e       0x12 C:\Users\cmshe\AppData\Local\Temp\cwsl_A_sample.elf.eOOQKS.ltrans1.ltrans.o
                0x000000001ff5bd3e                PA_IRQHandler
 .text.check_curr_trap
                0x000000001ff5bd50        0xe C:\Users\cmshe\AppData\Local\Temp\cwsl_A_sample.elf.eOOQKS.ltrans1.ltrans.o
                0x000000001ff5bd50                check_curr_trap
 .text.flash_manage_give_op_done_sem
                0x000000001ff5bd5e       0x32 C:\Users\cmshe\AppData\Local\Temp\cwsl_A_sample.elf.eOOQKS.ltrans1.ltrans.o
 .text.flash_manage_nuclear_com_outside_serve_cb
                0x000000001ff5bd90       0x42 C:\Users\cmshe\AppData\Local\Temp\cwsl_A_sample.elf.eOOQKS.ltrans1.ltrans.o
 .text.send_msg_to_sys_task
                0x000000001ff5bdd2       0x30 C:\Users\cmshe\AppData\Local\Temp\cwsl_A_sample.elf.eOOQKS.ltrans1.ltrans.o
 .text.uart_irq_handler
                0x000000001ff5be02       0xb4 C:\Users\cmshe\AppData\Local\Temp\cwsl_A_sample.elf.eOOQKS.ltrans1.ltrans.o
 .text.exit_wakeup_timer_callback
                0x000000001ff5beb6       0x26 C:\Users\cmshe\AppData\Local\Temp\cwsl_A_sample.elf.eOOQKS.ltrans1.ltrans.o
 .text.eclic_set_irq_lvl_abs.lto_priv.0
                0x000000001ff5bedc       0x4a C:\Users\cmshe\AppData\Local\Temp\cwsl_A_sample.elf.eOOQKS.ltrans1.ltrans.o
                0x000000001ff5bedc                eclic_set_irq_lvl_abs.lto_priv.0
 .text.vPortSetup
                0x000000001ff5bf26       0x9a C:\Users\cmshe\AppData\Local\Temp\cwsl_A_sample.elf.eOOQKS.ltrans1.ltrans.o
                0x000000001ff5bf26                vPortSetup
 .text.cm_set_codec_alc
                0x000000001ff5bfc0       0x32 C:\Users\cmshe\AppData\Local\Temp\cwsl_A_sample.elf.eOOQKS.ltrans1.ltrans.o
                0x000000001ff5bfc0                cm_set_codec_alc
 .text.decoder_port_free
                0x000000001ff5bff2       0x10 C:\Users\cmshe\AppData\Local\Temp\cwsl_A_sample.elf.eOOQKS.ltrans1.ltrans.o
                0x000000001ff5bff2                decoder_port_free
 .text.decoder_release
                0x000000001ff5c002      0x19e C:\Users\cmshe\AppData\Local\Temp\cwsl_A_sample.elf.eOOQKS.ltrans1.ltrans.o
 .text.codec_manage_inner_serve_cb
                0x000000001ff5c1a0       0x84 C:\Users\cmshe\AppData\Local\Temp\cwsl_A_sample.elf.eOOQKS.ltrans1.ltrans.o
 .text.cmd_info_find_command_by_string
                0x000000001ff5c224       0x76 C:\Users\cmshe\AppData\Local\Temp\cwsl_A_sample.elf.eOOQKS.ltrans1.ltrans.o
                0x000000001ff5c224                cmd_info_find_command_by_string
 .text.cmd_info_find_command_by_id
                0x000000001ff5c29a       0x60 C:\Users\cmshe\AppData\Local\Temp\cwsl_A_sample.elf.eOOQKS.ltrans1.ltrans.o
                0x000000001ff5c29a                cmd_info_find_command_by_id
 .text.is_valid_cmd_handle
                0x000000001ff5c2fa       0x1e C:\Users\cmshe\AppData\Local\Temp\cwsl_A_sample.elf.eOOQKS.ltrans1.ltrans.o
                0x000000001ff5c2fa                is_valid_cmd_handle
 .text.cmd_info_get_special_wait_count
                0x000000001ff5c318       0x82 C:\Users\cmshe\AppData\Local\Temp\cwsl_A_sample.elf.eOOQKS.ltrans1.ltrans.o
                0x000000001ff5c318                cmd_info_get_special_wait_count
 .text.cmd_info_is_wakeup_word
                0x000000001ff5c39a       0x42 C:\Users\cmshe\AppData\Local\Temp\cwsl_A_sample.elf.eOOQKS.ltrans1.ltrans.o
                0x000000001ff5c39a                cmd_info_is_wakeup_word
 .text.cmd_info_get_cmd_score
                0x000000001ff5c3dc       0x44 C:\Users\cmshe\AppData\Local\Temp\cwsl_A_sample.elf.eOOQKS.ltrans1.ltrans.o
                0x000000001ff5c3dc                cmd_info_get_cmd_score
 .text.judge_hasresult_early
                0x000000001ff5c420      0x3f2 C:\Users\cmshe\AppData\Local\Temp\cwsl_A_sample.elf.eOOQKS.ltrans1.ltrans.o
 .text.cmd_info_get_command_id
                0x000000001ff5c812       0x52 C:\Users\cmshe\AppData\Local\Temp\cwsl_A_sample.elf.eOOQKS.ltrans1.ltrans.o
 .text.mailbox_send_msg
                0x000000001ff5c864       0xba C:\Users\cmshe\AppData\Local\Temp\cwsl_A_sample.elf.eOOQKS.ltrans1.ltrans.o
                0x000000001ff5c864                mailbox_send_msg
 .text.remote_call_task
                0x000000001ff5c91e       0xfe C:\Users\cmshe\AppData\Local\Temp\cwsl_A_sample.elf.eOOQKS.ltrans1.ltrans.o
 .text.nuclear_com_irq_handler
                0x000000001ff5ca1c      0x17a C:\Users\cmshe\AppData\Local\Temp\cwsl_A_sample.elf.eOOQKS.ltrans1.ltrans.o
 .text.ulSynchTrap
                0x000000001ff5cb96      0x110 C:\Users\cmshe\AppData\Local\Temp\cwsl_A_sample.elf.eOOQKS.ltrans1.ltrans.o
                0x000000001ff5cb96                ulSynchTrap
 .text.app_deal_asr_reuslt_callback
                0x000000001ff5cca6      0x4c8 C:\Users\cmshe\AppData\Local\Temp\cwsl_A_sample.elf.eOOQKS.ltrans1.ltrans.o
 .text.flash_manage_req_wait_op_done_sem.lto_priv.0
                0x000000001ff5d16e       0x48 C:\Users\cmshe\AppData\Local\Temp\cwsl_A_sample.elf.eOOQKS.ltrans1.ltrans.o
                0x000000001ff5d16e                flash_manage_req_wait_op_done_sem.lto_priv.0
 .text.wait_flash_sem.lto_priv.0
                0x000000001ff5d1b6       0x3e C:\Users\cmshe\AppData\Local\Temp\cwsl_A_sample.elf.eOOQKS.ltrans1.ltrans.o
                0x000000001ff5d1b6                wait_flash_sem.lto_priv.0
 .text.post_write_flash
                0x000000001ff5d1f4       0x3e C:\Users\cmshe\AppData\Local\Temp\cwsl_A_sample.elf.eOOQKS.ltrans1.ltrans.o
                0x000000001ff5d1f4                post_write_flash
 .text.post_read_flash
                0x000000001ff5d232       0x94 C:\Users\cmshe\AppData\Local\Temp\cwsl_A_sample.elf.eOOQKS.ltrans1.ltrans.o
                0x000000001ff5d232                post_read_flash
 .text.traverse_feb
                0x000000001ff5d2c6      0x26c C:\Users\cmshe\AppData\Local\Temp\cwsl_A_sample.elf.eOOQKS.ltrans1.ltrans.o
 .text.find_item
                0x000000001ff5d532       0x58 C:\Users\cmshe\AppData\Local\Temp\cwsl_A_sample.elf.eOOQKS.ltrans1.ltrans.o
 .text.find_id.lto_priv.0
                0x000000001ff5d58a       0x40 C:\Users\cmshe\AppData\Local\Temp\cwsl_A_sample.elf.eOOQKS.ltrans1.ltrans.o
                0x000000001ff5d58a                find_id.lto_priv.0
 .text.reclaim_block
                0x000000001ff5d5ca       0x54 C:\Users\cmshe\AppData\Local\Temp\cwsl_A_sample.elf.eOOQKS.ltrans1.ltrans.o
 .text.init_item
                0x000000001ff5d61e       0xca C:\Users\cmshe\AppData\Local\Temp\cwsl_A_sample.elf.eOOQKS.ltrans1.ltrans.o
 .text.decoder_switchfst_done
                0x000000001ff5d6e8       0x36 C:\Users\cmshe\AppData\Local\Temp\cwsl_A_sample.elf.eOOQKS.ltrans1.ltrans.o
 .text.decoder_task_clear_done
                0x000000001ff5d71e       0x36 C:\Users\cmshe\AppData\Local\Temp\cwsl_A_sample.elf.eOOQKS.ltrans1.ltrans.o
 .text.decoder_release_done
                0x000000001ff5d754       0x36 C:\Users\cmshe\AppData\Local\Temp\cwsl_A_sample.elf.eOOQKS.ltrans1.ltrans.o
 .text.decodersys_clear
                0x000000001ff5d78a       0x60 C:\Users\cmshe\AppData\Local\Temp\cwsl_A_sample.elf.eOOQKS.ltrans1.ltrans.o
 .text.decoder_engine_graph_check
                0x000000001ff5d7ea      0x1d8 C:\Users\cmshe\AppData\Local\Temp\cwsl_A_sample.elf.eOOQKS.ltrans1.ltrans.o
 .text.decoder_parameter_cfg
                0x000000001ff5d9c2      0x1b6 C:\Users\cmshe\AppData\Local\Temp\cwsl_A_sample.elf.eOOQKS.ltrans1.ltrans.o
 .text.switch_decoder_fst.isra.0
                0x000000001ff5db78      0x198 C:\Users\cmshe\AppData\Local\Temp\cwsl_A_sample.elf.eOOQKS.ltrans1.ltrans.o
 .text.decoer_create_lm_get_ac_info
                0x000000001ff5dd10      0x552 C:\Users\cmshe\AppData\Local\Temp\cwsl_A_sample.elf.eOOQKS.ltrans1.ltrans.o
 .text.decoder_rpmsg_serve_cb
                0x000000001ff5e262      0x330 C:\Users\cmshe\AppData\Local\Temp\cwsl_A_sample.elf.eOOQKS.ltrans1.ltrans.o
 .text.asr_top_outside_serve_cb
                0x000000001ff5e592       0x76 C:\Users\cmshe\AppData\Local\Temp\cwsl_A_sample.elf.eOOQKS.ltrans1.ltrans.o
 .text.on_cwsl_record_end
                0x000000001ff5e608       0xbc C:\Users\cmshe\AppData\Local\Temp\cwsl_A_sample.elf.eOOQKS.ltrans1.ltrans.o
                0x000000001ff5e608                on_cwsl_record_end
 .text.on_cwsl_reg_start
                0x000000001ff5e6c4       0x98 C:\Users\cmshe\AppData\Local\Temp\cwsl_A_sample.elf.eOOQKS.ltrans1.ltrans.o
                0x000000001ff5e6c4                on_cwsl_reg_start
 .text.exit_wakeup_deal
                0x000000001ff5e75c       0x76 C:\Users\cmshe\AppData\Local\Temp\cwsl_A_sample.elf.eOOQKS.ltrans1.ltrans.o
 .text.IIC0_IRQHandler
                0x000000001ff5e7d2      0x27a C:\Users\cmshe\AppData\Local\Temp\cwsl_A_sample.elf.eOOQKS.ltrans1.ltrans.o
                0x000000001ff5e7d2                IIC0_IRQHandler
 .text.iis_wait_load_ctrl
                0x000000001ff5ea4c       0x38 C:\Users\cmshe\AppData\Local\Temp\cwsl_A_sample.elf.eOOQKS.ltrans1.ltrans.o
                0x000000001ff5ea4c                iis_wait_load_ctrl
 .text.IISxDMA_TADDR0.part.0
                0x000000001ff5ea84       0x2c C:\Users\cmshe\AppData\Local\Temp\cwsl_A_sample.elf.eOOQKS.ltrans1.ltrans.o
 .text.cm_output_interrupt_handler
                0x000000001ff5eab0      0x102 C:\Users\cmshe\AppData\Local\Temp\cwsl_A_sample.elf.eOOQKS.ltrans1.ltrans.o
 .text.IISDMA_ADDRRollBackINT.part.0
                0x000000001ff5ebb2       0x2c C:\Users\cmshe\AppData\Local\Temp\cwsl_A_sample.elf.eOOQKS.ltrans1.ltrans.o
                0x000000001ff5ebb2                IISDMA_ADDRRollBackINT.part.0
 .text.cm_input_interrupt_handler
                0x000000001ff5ebde       0x7c C:\Users\cmshe\AppData\Local\Temp\cwsl_A_sample.elf.eOOQKS.ltrans1.ltrans.o
 .text.IIS_DMA_IRQHandler
                0x000000001ff5ec5a      0x112 C:\Users\cmshe\AppData\Local\Temp\cwsl_A_sample.elf.eOOQKS.ltrans1.ltrans.o
                0x000000001ff5ec5a                IIS_DMA_IRQHandler
 .text.get_iis_dma_channel.lto_priv.0
                0x000000001ff5ed6c       0x58 C:\Users\cmshe\AppData\Local\Temp\cwsl_A_sample.elf.eOOQKS.ltrans1.ltrans.o
                0x000000001ff5ed6c                get_iis_dma_channel.lto_priv.0
 .text.cm_config_codec.part.0
                0x000000001ff5edc4      0x6a0 C:\Users\cmshe\AppData\Local\Temp\cwsl_A_sample.elf.eOOQKS.ltrans1.ltrans.o
                0x000000001ff5edc4                cm_config_codec.part.0
 .text.init_iis.isra.0
                0x000000001ff5f464       0x8a C:\Users\cmshe\AppData\Local\Temp\cwsl_A_sample.elf.eOOQKS.ltrans1.ltrans.o
 .text.cm_start_codec
                0x000000001ff5f4ee      0x1de C:\Users\cmshe\AppData\Local\Temp\cwsl_A_sample.elf.eOOQKS.ltrans1.ltrans.o
                0x000000001ff5f4ee                cm_start_codec
 .text.asr_result_callback
                0x000000001ff5f6cc      0x210 C:\Users\cmshe\AppData\Local\Temp\cwsl_A_sample.elf.eOOQKS.ltrans1.ltrans.o
                0x000000001ff5f6cc                asr_result_callback
 .text.audio_in_manage_inner_task
                0x000000001ff5f8dc      0x216 C:\Users\cmshe\AppData\Local\Temp\cwsl_A_sample.elf.eOOQKS.ltrans1.ltrans.o
 .text.prompt_play_inner.isra.0.lto_priv.0
                0x000000001ff5faf2      0x284 C:\Users\cmshe\AppData\Local\Temp\cwsl_A_sample.elf.eOOQKS.ltrans1.ltrans.o
                0x000000001ff5faf2                prompt_play_inner.isra.0.lto_priv.0
 .text.combination_callback.lto_priv.0
                0x000000001ff5fd76       0xcc C:\Users\cmshe\AppData\Local\Temp\cwsl_A_sample.elf.eOOQKS.ltrans1.ltrans.o
                0x000000001ff5fd76                combination_callback.lto_priv.0
 .text.realloc_buffer
                0x000000001ff5fe42       0x3a C:\Users\cmshe\AppData\Local\Temp\cwsl_A_sample.elf.eOOQKS.ltrans1.ltrans.o
 .text.cmd_info_change_cur_model_group_inner.part.0
                0x000000001ff5fe7c      0x114 C:\Users\cmshe\AppData\Local\Temp\cwsl_A_sample.elf.eOOQKS.ltrans1.ltrans.o
 .text.cmd_file_change_cur_model_group
                0x000000001ff5ff90       0xac C:\Users\cmshe\AppData\Local\Temp\cwsl_A_sample.elf.eOOQKS.ltrans1.ltrans.o
 .text.cmd_info_change_cur_model_group.part.0
                0x000000001ff6003c       0x6e C:\Users\cmshe\AppData\Local\Temp\cwsl_A_sample.elf.eOOQKS.ltrans1.ltrans.o
 .text.change_asr_normal_word
                0x000000001ff600aa       0x54 C:\Users\cmshe\AppData\Local\Temp\cwsl_A_sample.elf.eOOQKS.ltrans1.ltrans.o
 .text.cinv_port_mutex_give
                0x000000001ff600fe       0x36 C:\Users\cmshe\AppData\Local\Temp\cwsl_A_sample.elf.eOOQKS.ltrans1.ltrans.o
                0x000000001ff600fe                cinv_port_mutex_give
 .text.cinv_port_mutex_take
                0x000000001ff60134       0x32 C:\Users\cmshe\AppData\Local\Temp\cwsl_A_sample.elf.eOOQKS.ltrans1.ltrans.o
                0x000000001ff60134                cinv_port_mutex_take
 .text.vol_set  0x000000001ff60166       0xb8 C:\Users\cmshe\AppData\Local\Temp\cwsl_A_sample.elf.eOOQKS.ltrans1.ltrans.o
 .text.cinv_item_init.part.0
                0x000000001ff6021e       0x46 C:\Users\cmshe\AppData\Local\Temp\cwsl_A_sample.elf.eOOQKS.ltrans1.ltrans.o
                0x000000001ff6021e                cinv_item_init.part.0
 .text.cinv_item_read
                0x000000001ff60264       0xc4 C:\Users\cmshe\AppData\Local\Temp\cwsl_A_sample.elf.eOOQKS.ltrans1.ltrans.o
 .text.UserTaskManageProcess
                0x000000001ff60328      0x826 C:\Users\cmshe\AppData\Local\Temp\cwsl_A_sample.elf.eOOQKS.ltrans1.ltrans.o
 .text.send_notdeal_msg_to_decoder_queue
                0x000000001ff60b4e       0xca C:\Users\cmshe\AppData\Local\Temp\cwsl_A_sample.elf.eOOQKS.ltrans1.ltrans.o
 .text.clear_decode_queuemsg
                0x000000001ff60c18       0xe0 C:\Users\cmshe\AppData\Local\Temp\cwsl_A_sample.elf.eOOQKS.ltrans1.ltrans.o
 .text.decoder_manage_task
                0x000000001ff60cf8      0x7a6 C:\Users\cmshe\AppData\Local\Temp\cwsl_A_sample.elf.eOOQKS.ltrans1.ltrans.o
 .text.task_init
                0x000000001ff6149e     0x10f8 C:\Users\cmshe\AppData\Local\Temp\cwsl_A_sample.elf.eOOQKS.ltrans1.ltrans.o
 .text.other_func_serve_cb
                0x000000001ff62596       0x1a C:\Users\cmshe\AppData\Local\Temp\cwsl_A_sample.elf.eOOQKS.ltrans2.ltrans.o
                0x000000001ff62596                other_func_serve_cb
 .text.ADPCM_Decode
                0x000000001ff625b0       0xa0 C:\Users\cmshe\AppData\Local\Temp\cwsl_A_sample.elf.eOOQKS.ltrans2.ltrans.o
 .text.de_codeadpcm_mono_to_mono
                0x000000001ff62650       0x3e C:\Users\cmshe\AppData\Local\Temp\cwsl_A_sample.elf.eOOQKS.ltrans2.ltrans.o
 .text.save_audio_info
                0x000000001ff6268e       0x6e C:\Users\cmshe\AppData\Local\Temp\cwsl_A_sample.elf.eOOQKS.ltrans2.ltrans.o
 .text.audio_play_prompt_init
                0x000000001ff626fc        0x4 C:\Users\cmshe\AppData\Local\Temp\cwsl_A_sample.elf.eOOQKS.ltrans2.ltrans.o
                0x000000001ff626fc                audio_play_prompt_init
 .text.do_call_callback_fun
                0x000000001ff62700       0x30 C:\Users\cmshe\AppData\Local\Temp\cwsl_A_sample.elf.eOOQKS.ltrans2.ltrans.o
 .text.audio_play_prompt_destroy
                0x000000001ff62730        0x4 C:\Users\cmshe\AppData\Local\Temp\cwsl_A_sample.elf.eOOQKS.ltrans2.ltrans.o
                0x000000001ff62730                audio_play_prompt_destroy
 .text.audio_play_prompt_clear
                0x000000001ff62734        0xc C:\Users\cmshe\AppData\Local\Temp\cwsl_A_sample.elf.eOOQKS.ltrans2.ltrans.o
                0x000000001ff62734                audio_play_prompt_clear
 .text.audio_play_adpcm_decode
                0x000000001ff62740       0x62 C:\Users\cmshe\AppData\Local\Temp\cwsl_A_sample.elf.eOOQKS.ltrans2.ltrans.o
                0x000000001ff62740                audio_play_adpcm_decode
 .text.audio_play_ms_wav_decode
                0x000000001ff627a2       0x9c C:\Users\cmshe\AppData\Local\Temp\cwsl_A_sample.elf.eOOQKS.ltrans2.ltrans.o
 .text.audio_play_adpcm_decode2
                0x000000001ff6283e      0x132 C:\Users\cmshe\AppData\Local\Temp\cwsl_A_sample.elf.eOOQKS.ltrans2.ltrans.o
 .text.audio_play_mp3_clear
                0x000000001ff62970       0x16 C:\Users\cmshe\AppData\Local\Temp\cwsl_A_sample.elf.eOOQKS.ltrans2.ltrans.o
                0x000000001ff62970                audio_play_mp3_clear
 .text.audio_play_mp3_destroy
                0x000000001ff62986       0x1e C:\Users\cmshe\AppData\Local\Temp\cwsl_A_sample.elf.eOOQKS.ltrans2.ltrans.o
                0x000000001ff62986                audio_play_mp3_destroy
 .text.prvInsertBlockIntoFreeList
                0x000000001ff629a4       0x42 C:\Users\cmshe\AppData\Local\Temp\cwsl_A_sample.elf.eOOQKS.ltrans2.ltrans.o
 .text.prvResetNextTaskUnblockTime
                0x000000001ff629e6       0x1c C:\Users\cmshe\AppData\Local\Temp\cwsl_A_sample.elf.eOOQKS.ltrans2.ltrans.o
 .text.prvCopyDataFromQueue
                0x000000001ff62a02       0x2c C:\Users\cmshe\AppData\Local\Temp\cwsl_A_sample.elf.eOOQKS.ltrans2.ltrans.o
 .text.uxListRemove
                0x000000001ff62a2e       0x20 C:\Users\cmshe\AppData\Local\Temp\cwsl_A_sample.elf.eOOQKS.ltrans2.ltrans.o
 .text.vListInsert
                0x000000001ff62a4e       0x2e C:\Users\cmshe\AppData\Local\Temp\cwsl_A_sample.elf.eOOQKS.ltrans2.ltrans.o
 .text.prvInsertTimerInActiveList
                0x000000001ff62a7c       0x3e C:\Users\cmshe\AppData\Local\Temp\cwsl_A_sample.elf.eOOQKS.ltrans2.ltrans.o
 .text.xTaskCheckForTimeOut
                0x000000001ff62aba       0x64 C:\Users\cmshe\AppData\Local\Temp\cwsl_A_sample.elf.eOOQKS.ltrans2.ltrans.o
 .text.prvIsQueueEmpty
                0x000000001ff62b1e       0x18 C:\Users\cmshe\AppData\Local\Temp\cwsl_A_sample.elf.eOOQKS.ltrans2.ltrans.o
 .text.prvSwitchTimerLists
                0x000000001ff62b36       0x64 C:\Users\cmshe\AppData\Local\Temp\cwsl_A_sample.elf.eOOQKS.ltrans2.ltrans.o
 .text.load_freq_correct_factor
                0x000000001ff62b9a      0x370 C:\Users\cmshe\AppData\Local\Temp\cwsl_A_sample.elf.eOOQKS.ltrans2.ltrans.o
 .text.write_feb_status.lto_priv.0
                0x000000001ff62f0a       0x56 C:\Users\cmshe\AppData\Local\Temp\cwsl_A_sample.elf.eOOQKS.ltrans2.ltrans.o
                0x000000001ff62f0a                write_feb_status.lto_priv.0
 .text.write_item_status.lto_priv.0
                0x000000001ff62f60       0x88 C:\Users\cmshe\AppData\Local\Temp\cwsl_A_sample.elf.eOOQKS.ltrans2.ltrans.o
                0x000000001ff62f60                write_item_status.lto_priv.0
 .text.hotid_update.lto_priv.0
                0x000000001ff62fe8       0x1c C:\Users\cmshe\AppData\Local\Temp\cwsl_A_sample.elf.eOOQKS.ltrans2.ltrans.o
                0x000000001ff62fe8                hotid_update.lto_priv.0
 .text.write_item.lto_priv.0
                0x000000001ff63004      0x11a C:\Users\cmshe\AppData\Local\Temp\cwsl_A_sample.elf.eOOQKS.ltrans2.ltrans.o
                0x000000001ff63004                write_item.lto_priv.0
 .text.erase_feb.lto_priv.0
                0x000000001ff6311e       0x32 C:\Users\cmshe\AppData\Local\Temp\cwsl_A_sample.elf.eOOQKS.ltrans2.ltrans.o
                0x000000001ff6311e                erase_feb.lto_priv.0
 .text.ciss_set
                0x000000001ff63150       0x16 C:\Users\cmshe\AppData\Local\Temp\cwsl_A_sample.elf.eOOQKS.ltrans2.ltrans.o
                0x000000001ff63150                ciss_set
 .text.registe_decoder_ops
                0x000000001ff63166       0x20 C:\Users\cmshe\AppData\Local\Temp\cwsl_A_sample.elf.eOOQKS.ltrans2.ltrans.o
                0x000000001ff63166                registe_decoder_ops
 .text.cached_flash_reader_read
                0x000000001ff63186       0xa6 C:\Users\cmshe\AppData\Local\Temp\cwsl_A_sample.elf.eOOQKS.ltrans2.ltrans.o
                0x000000001ff63186                cached_flash_reader_read
 .text._printf  0x000000001ff6322c       0x76 C:\Users\cmshe\AppData\Local\Temp\cwsl_A_sample.elf.eOOQKS.ltrans2.ltrans.o
                0x000000001ff6322c                _printf
 .text.audio_play_prompt_config
                0x000000001ff632a2       0xac C:\Users\cmshe\AppData\Local\Temp\cwsl_A_sample.elf.eOOQKS.ltrans2.ltrans.o
                0x000000001ff632a2                audio_play_prompt_config
 .text.audio_play_mp3_decode
                0x000000001ff6334e      0x110 C:\Users\cmshe\AppData\Local\Temp\cwsl_A_sample.elf.eOOQKS.ltrans2.ltrans.o
                0x000000001ff6334e                audio_play_mp3_decode
 .text.audio_play_mp3_init
                0x000000001ff6345e       0x2e C:\Users\cmshe\AppData\Local\Temp\cwsl_A_sample.elf.eOOQKS.ltrans2.ltrans.o
                0x000000001ff6345e                audio_play_mp3_init
 .text.xTaskGetSchedulerState
                0x000000001ff6348c       0x14 C:\Users\cmshe\AppData\Local\Temp\cwsl_A_sample.elf.eOOQKS.ltrans2.ltrans.o
                0x000000001ff6348c                xTaskGetSchedulerState
 .text.xTaskGetTickCount
                0x000000001ff634a0       0x1c C:\Users\cmshe\AppData\Local\Temp\cwsl_A_sample.elf.eOOQKS.ltrans2.ltrans.o
                0x000000001ff634a0                xTaskGetTickCount
 .text.vTaskSuspendAll
                0x000000001ff634bc        0xc C:\Users\cmshe\AppData\Local\Temp\cwsl_A_sample.elf.eOOQKS.ltrans2.ltrans.o
                0x000000001ff634bc                vTaskSuspendAll
 .text.vListInsertEnd
                0x000000001ff634c8       0x18 C:\Users\cmshe\AppData\Local\Temp\cwsl_A_sample.elf.eOOQKS.ltrans2.ltrans.o
                0x000000001ff634c8                vListInsertEnd
 .text.prvAddCurrentTaskToDelayedList
                0x000000001ff634e0       0x70 C:\Users\cmshe\AppData\Local\Temp\cwsl_A_sample.elf.eOOQKS.ltrans2.ltrans.o
 .text.vTaskPlaceOnEventList
                0x000000001ff63550       0x1c C:\Users\cmshe\AppData\Local\Temp\cwsl_A_sample.elf.eOOQKS.ltrans2.ltrans.o
 .text.xTaskRemoveFromEventList
                0x000000001ff6356c       0x70 C:\Users\cmshe\AppData\Local\Temp\cwsl_A_sample.elf.eOOQKS.ltrans2.ltrans.o
                0x000000001ff6356c                xTaskRemoveFromEventList
 .text.audio_play_queue_reset
                0x000000001ff635dc       0x4c C:\Users\cmshe\AppData\Local\Temp\cwsl_A_sample.elf.eOOQKS.ltrans2.ltrans.o
 .text.prvUnlockQueue
                0x000000001ff63628       0x7a C:\Users\cmshe\AppData\Local\Temp\cwsl_A_sample.elf.eOOQKS.ltrans2.ltrans.o
 .text.xQueueReceiveFromISR
                0x000000001ff636a2       0x76 C:\Users\cmshe\AppData\Local\Temp\cwsl_A_sample.elf.eOOQKS.ltrans2.ltrans.o
                0x000000001ff636a2                xQueueReceiveFromISR
 .text.xQueueGiveFromISR
                0x000000001ff63718       0x60 C:\Users\cmshe\AppData\Local\Temp\cwsl_A_sample.elf.eOOQKS.ltrans2.ltrans.o
                0x000000001ff63718                xQueueGiveFromISR
 .text.xTaskIncrementTick
                0x000000001ff63778       0xe4 C:\Users\cmshe\AppData\Local\Temp\cwsl_A_sample.elf.eOOQKS.ltrans2.ltrans.o
                0x000000001ff63778                xTaskIncrementTick
 .text.xTaskResumeAll
                0x000000001ff6385c       0xbe C:\Users\cmshe\AppData\Local\Temp\cwsl_A_sample.elf.eOOQKS.ltrans2.ltrans.o
                0x000000001ff6385c                xTaskResumeAll
 .text.vPortFree
                0x000000001ff6391a       0x4a C:\Users\cmshe\AppData\Local\Temp\cwsl_A_sample.elf.eOOQKS.ltrans2.ltrans.o
                0x000000001ff6391a                vPortFree
 .text.free_bak_data
                0x000000001ff63964       0x26 C:\Users\cmshe\AppData\Local\Temp\cwsl_A_sample.elf.eOOQKS.ltrans2.ltrans.o
 .text.prvIdleTask.lto_priv.0
                0x000000001ff6398a       0x60 C:\Users\cmshe\AppData\Local\Temp\cwsl_A_sample.elf.eOOQKS.ltrans2.ltrans.o
                0x000000001ff6398a                prvIdleTask.lto_priv.0
 .text.vQueueDelete
                0x000000001ff639ea       0x38 C:\Users\cmshe\AppData\Local\Temp\cwsl_A_sample.elf.eOOQKS.ltrans2.ltrans.o
                0x000000001ff639ea                vQueueDelete
 .text.pvPortMalloc
                0x000000001ff63a22       0xf0 C:\Users\cmshe\AppData\Local\Temp\cwsl_A_sample.elf.eOOQKS.ltrans2.ltrans.o
                0x000000001ff63a22                pvPortMalloc
 .text.get_file_table
                0x000000001ff63b12       0x4a C:\Users\cmshe\AppData\Local\Temp\cwsl_A_sample.elf.eOOQKS.ltrans2.ltrans.o
                0x000000001ff63b12                get_file_table
 .text.get_file_addr
                0x000000001ff63b5c       0xaa C:\Users\cmshe\AppData\Local\Temp\cwsl_A_sample.elf.eOOQKS.ltrans2.ltrans.o
                0x000000001ff63b5c                get_file_addr
 .text.get_current_model_addr
                0x000000001ff63c06       0x8e C:\Users\cmshe\AppData\Local\Temp\cwsl_A_sample.elf.eOOQKS.ltrans2.ltrans.o
                0x000000001ff63c06                get_current_model_addr
 .text.flash_control_inner_serve_cb
                0x000000001ff63c94       0x6e C:\Users\cmshe\AppData\Local\Temp\cwsl_A_sample.elf.eOOQKS.ltrans2.ltrans.o
                0x000000001ff63c94                flash_control_inner_serve_cb
 .text.prvListTasksWithinSingleList.lto_priv.0
                0x000000001ff63d02       0xca C:\Users\cmshe\AppData\Local\Temp\cwsl_A_sample.elf.eOOQKS.ltrans2.ltrans.o
                0x000000001ff63d02                prvListTasksWithinSingleList.lto_priv.0
 .text.vTaskDelay
                0x000000001ff63dcc       0x28 C:\Users\cmshe\AppData\Local\Temp\cwsl_A_sample.elf.eOOQKS.ltrans2.ltrans.o
                0x000000001ff63dcc                vTaskDelay
 .text.xQueuePeek
                0x000000001ff63df4       0xe6 C:\Users\cmshe\AppData\Local\Temp\cwsl_A_sample.elf.eOOQKS.ltrans2.ltrans.o
                0x000000001ff63df4                xQueuePeek
 .text.xQueueReceive
                0x000000001ff63eda       0xe2 C:\Users\cmshe\AppData\Local\Temp\cwsl_A_sample.elf.eOOQKS.ltrans2.ltrans.o
                0x000000001ff63eda                xQueueReceive
 .text.finsh_read_data
                0x000000001ff63fbc       0x18 C:\Users\cmshe\AppData\Local\Temp\cwsl_A_sample.elf.eOOQKS.ltrans2.ltrans.o
 .text.prvTimerTask.lto_priv.0
                0x000000001ff63fd4      0x1a0 C:\Users\cmshe\AppData\Local\Temp\cwsl_A_sample.elf.eOOQKS.ltrans2.ltrans.o
                0x000000001ff63fd4                prvTimerTask.lto_priv.0
 .text.prvCopyDataToQueue.lto_priv.0
                0x000000001ff64174       0xc8 C:\Users\cmshe\AppData\Local\Temp\cwsl_A_sample.elf.eOOQKS.ltrans2.ltrans.o
                0x000000001ff64174                prvCopyDataToQueue.lto_priv.0
 .text.xQueueGenericSend
                0x000000001ff6423c       0xf0 C:\Users\cmshe\AppData\Local\Temp\cwsl_A_sample.elf.eOOQKS.ltrans2.ltrans.o
                0x000000001ff6423c                xQueueGenericSend
 .text.pause_read_data
                0x000000001ff6432c       0x3c C:\Users\cmshe\AppData\Local\Temp\cwsl_A_sample.elf.eOOQKS.ltrans2.ltrans.o
 .text.xQueueSemaphoreTake
                0x000000001ff64368      0x20e C:\Users\cmshe\AppData\Local\Temp\cwsl_A_sample.elf.eOOQKS.ltrans2.ltrans.o
                0x000000001ff64368                xQueueSemaphoreTake
 .text.task_get_play_data
                0x000000001ff64576      0x596 C:\Users\cmshe\AppData\Local\Temp\cwsl_A_sample.elf.eOOQKS.ltrans2.ltrans.o
                0x000000001ff64576                task_get_play_data
 .text.vListInitialise
                0x000000001ff64b0c       0x14 C:\Users\cmshe\AppData\Local\Temp\cwsl_A_sample.elf.eOOQKS.ltrans2.ltrans.o
                0x000000001ff64b0c                vListInitialise
 .text.xQueueGenericCreate
                0x000000001ff64b20       0x74 C:\Users\cmshe\AppData\Local\Temp\cwsl_A_sample.elf.eOOQKS.ltrans2.ltrans.o
                0x000000001ff64b20                xQueueGenericCreate
 .text.prvCheckForValidListAndQueue.lto_priv.0
                0x000000001ff64b94       0x7c C:\Users\cmshe\AppData\Local\Temp\cwsl_A_sample.elf.eOOQKS.ltrans2.ltrans.o
                0x000000001ff64b94                prvCheckForValidListAndQueue.lto_priv.0
 .text.xEventGroupSetBits
                0x000000001ff64c10       0xbc C:\Users\cmshe\AppData\Local\Temp\cwsl_A_sample.elf.eOOQKS.ltrans2.ltrans.o
                0x000000001ff64c10                xEventGroupSetBits
 .text.vEventGroupSetBitsCallback
                0x000000001ff64ccc        0xc C:\Users\cmshe\AppData\Local\Temp\cwsl_A_sample.elf.eOOQKS.ltrans2.ltrans.o
                0x000000001ff64ccc                vEventGroupSetBitsCallback
 .text.xEventGroupWaitBits
                0x000000001ff64cd8       0xd0 C:\Users\cmshe\AppData\Local\Temp\cwsl_A_sample.elf.eOOQKS.ltrans2.ltrans.o
                0x000000001ff64cd8                xEventGroupWaitBits
 .text.cheak_play_event
                0x000000001ff64da8       0x30 C:\Users\cmshe\AppData\Local\Temp\cwsl_A_sample.elf.eOOQKS.ltrans2.ltrans.o
 .text.audio_play_decode_continue
                0x000000001ff64dd8      0x4b2 C:\Users\cmshe\AppData\Local\Temp\cwsl_A_sample.elf.eOOQKS.ltrans2.ltrans.o
 .text.task_audio_play
                0x000000001ff6528a      0x5d0 C:\Users\cmshe\AppData\Local\Temp\cwsl_A_sample.elf.eOOQKS.ltrans2.ltrans.o
                0x000000001ff6528a                task_audio_play
 .text.xEventGroupCreate
                0x000000001ff6585a       0x1e C:\Users\cmshe\AppData\Local\Temp\cwsl_A_sample.elf.eOOQKS.ltrans2.ltrans.o
                0x000000001ff6585a                xEventGroupCreate
 .text.handle_trap
                0x000000001ff65878      0x118 C:\Users\cmshe\AppData\Local\Temp\cwsl_A_sample.elf.eOOQKS.ltrans2.ltrans.o
                0x000000001ff65878                handle_trap
 .text.get_src_clk
                0x000000001ff65990        0xc C:\Users\cmshe\AppData\Local\Temp\cwsl_A_sample.elf.eOOQKS.ltrans2.ltrans.o
                0x000000001ff65990                get_src_clk
 .text.init_irq_pri
                0x000000001ff6599c       0x22 C:\Users\cmshe\AppData\Local\Temp\cwsl_A_sample.elf.eOOQKS.ltrans2.ltrans.o
                0x000000001ff6599c                init_irq_pri
 .text._delay_10us_240M
                0x000000001ff659be       0x2e C:\Users\cmshe\AppData\Local\Temp\cwsl_A_sample.elf.eOOQKS.ltrans2.ltrans.o
                0x000000001ff659be                _delay_10us_240M
 .text.AON_TIM_INT1_IRQHandler
                0x000000001ff659ec        0x2 C:\Users\cmshe\AppData\Local\Temp\cwsl_A_sample.elf.eOOQKS.ltrans2.ltrans.o
                0x000000001ff659ec                AON_TIM_INT1_IRQHandler
 .text.IWDG_IRQHandler
                0x000000001ff659ee        0x2 C:\Users\cmshe\AppData\Local\Temp\cwsl_A_sample.elf.eOOQKS.ltrans2.ltrans.o
                0x000000001ff659ee                IWDG_IRQHandler
 .text.AON_TIM_INT0_IRQHandler
                0x000000001ff659f0        0x2 C:\Users\cmshe\AppData\Local\Temp\cwsl_A_sample.elf.eOOQKS.ltrans2.ltrans.o
                0x000000001ff659f0                AON_TIM_INT0_IRQHandler
 .text.EXT1_IRQHandler
                0x000000001ff659f2        0x2 C:\Users\cmshe\AppData\Local\Temp\cwsl_A_sample.elf.eOOQKS.ltrans2.ltrans.o
                0x000000001ff659f2                EXT1_IRQHandler
 .text.EXT0_IRQHandler
                0x000000001ff659f4        0x2 C:\Users\cmshe\AppData\Local\Temp\cwsl_A_sample.elf.eOOQKS.ltrans2.ltrans.o
                0x000000001ff659f4                EXT0_IRQHandler
 .text.VDT_IRQHandler
                0x000000001ff659f6        0x2 C:\Users\cmshe\AppData\Local\Temp\cwsl_A_sample.elf.eOOQKS.ltrans2.ltrans.o
                0x000000001ff659f6                VDT_IRQHandler
 .text.V11_OK_IRQHandler
                0x000000001ff659f8        0x2 C:\Users\cmshe\AppData\Local\Temp\cwsl_A_sample.elf.eOOQKS.ltrans2.ltrans.o
                0x000000001ff659f8                V11_OK_IRQHandler
 .text.DTR_IRQHandler
                0x000000001ff659fa        0x2 C:\Users\cmshe\AppData\Local\Temp\cwsl_A_sample.elf.eOOQKS.ltrans2.ltrans.o
                0x000000001ff659fa                DTR_IRQHandler
 .text.PDM_IRQHandler
                0x000000001ff659fc        0x2 C:\Users\cmshe\AppData\Local\Temp\cwsl_A_sample.elf.eOOQKS.ltrans2.ltrans.o
                0x000000001ff659fc                PDM_IRQHandler
 .text.ALC_IRQHandler
                0x000000001ff659fe        0x2 C:\Users\cmshe\AppData\Local\Temp\cwsl_A_sample.elf.eOOQKS.ltrans2.ltrans.o
                0x000000001ff659fe                ALC_IRQHandler
 .text.IIS2_IRQHandler
                0x000000001ff65a00        0x2 C:\Users\cmshe\AppData\Local\Temp\cwsl_A_sample.elf.eOOQKS.ltrans2.ltrans.o
                0x000000001ff65a00                IIS2_IRQHandler
 .text.IIS1_IRQHandler
                0x000000001ff65a02        0x2 C:\Users\cmshe\AppData\Local\Temp\cwsl_A_sample.elf.eOOQKS.ltrans2.ltrans.o
                0x000000001ff65a02                IIS1_IRQHandler
 .text.IIS0_IRQHandler
                0x000000001ff65a04        0x2 C:\Users\cmshe\AppData\Local\Temp\cwsl_A_sample.elf.eOOQKS.ltrans2.ltrans.o
                0x000000001ff65a04                IIS0_IRQHandler
 .text.UART2_IRQHandler
                0x000000001ff65a06        0x2 C:\Users\cmshe\AppData\Local\Temp\cwsl_A_sample.elf.eOOQKS.ltrans2.ltrans.o
                0x000000001ff65a06                UART2_IRQHandler
 .text.UART1_IRQHandler
                0x000000001ff65a08        0x2 C:\Users\cmshe\AppData\Local\Temp\cwsl_A_sample.elf.eOOQKS.ltrans2.ltrans.o
                0x000000001ff65a08                UART1_IRQHandler
 .text.UART0_IRQHandler
                0x000000001ff65a0a        0x2 C:\Users\cmshe\AppData\Local\Temp\cwsl_A_sample.elf.eOOQKS.ltrans2.ltrans.o
                0x000000001ff65a0a                UART0_IRQHandler
 .text.TIMER3_IRQHandler
                0x000000001ff65a0c        0x2 C:\Users\cmshe\AppData\Local\Temp\cwsl_A_sample.elf.eOOQKS.ltrans2.ltrans.o
                0x000000001ff65a0c                TIMER3_IRQHandler
 .text.TIMER2_IRQHandler
                0x000000001ff65a0e        0x2 C:\Users\cmshe\AppData\Local\Temp\cwsl_A_sample.elf.eOOQKS.ltrans2.ltrans.o
                0x000000001ff65a0e                TIMER2_IRQHandler
 .text.TIMER1_IRQHandler
                0x000000001ff65a10        0x2 C:\Users\cmshe\AppData\Local\Temp\cwsl_A_sample.elf.eOOQKS.ltrans2.ltrans.o
                0x000000001ff65a10                TIMER1_IRQHandler
 .text.TIMER0_IRQHandler
                0x000000001ff65a12        0x2 C:\Users\cmshe\AppData\Local\Temp\cwsl_A_sample.elf.eOOQKS.ltrans2.ltrans.o
                0x000000001ff65a12                TIMER0_IRQHandler
 .text.DMA_IRQHandler
                0x000000001ff65a14       0x2a C:\Users\cmshe\AppData\Local\Temp\cwsl_A_sample.elf.eOOQKS.ltrans2.ltrans.o
                0x000000001ff65a14                DMA_IRQHandler
 .text.ADC_IRQHandler
                0x000000001ff65a3e        0x2 C:\Users\cmshe\AppData\Local\Temp\cwsl_A_sample.elf.eOOQKS.ltrans2.ltrans.o
                0x000000001ff65a3e                ADC_IRQHandler
 .text.NPU_IRQHandler
                0x000000001ff65a40        0x2 C:\Users\cmshe\AppData\Local\Temp\cwsl_A_sample.elf.eOOQKS.ltrans2.ltrans.o
                0x000000001ff65a40                NPU_IRQHandler
 .text.SCU_IRQHandler
                0x000000001ff65a42        0x2 C:\Users\cmshe\AppData\Local\Temp\cwsl_A_sample.elf.eOOQKS.ltrans2.ltrans.o
                0x000000001ff65a42                SCU_IRQHandler
 .text.TWDG_IRQHandler
                0x000000001ff65a44        0x2 C:\Users\cmshe\AppData\Local\Temp\cwsl_A_sample.elf.eOOQKS.ltrans2.ltrans.o
                0x000000001ff65a44                TWDG_IRQHandler
 .text._fini    0x000000001ff65a46        0x2 C:\Users\cmshe\AppData\Local\Temp\cwsl_A_sample.elf.eOOQKS.ltrans2.ltrans.o
                0x000000001ff65a46                _fini
 .text._init    0x000000001ff65a48       0xd4 C:\Users\cmshe\AppData\Local\Temp\cwsl_A_sample.elf.eOOQKS.ltrans2.ltrans.o
                0x000000001ff65a48                _init
 .text.sbrk     0x000000001ff65b1c       0x6e ../../../libs\libnewlib_port.a(sbrk.o)
                0x000000001ff65b1c                sbrk
 .text.get_heap_bytes_remaining_size
                0x000000001ff65b8a        0x6 ../../../libs\libnewlib_port.a(sbrk.o)
                0x000000001ff65b8a                get_heap_bytes_remaining_size
 .text.__malloc_lock
                0x000000001ff65b90        0xc ../../../libs\libnewlib_port.a(sbrk.o)
                0x000000001ff65b90                __malloc_lock
 .text.__malloc_unlock
                0x000000001ff65b9c        0xc ../../../libs\libnewlib_port.a(sbrk.o)
                0x000000001ff65b9c                __malloc_unlock
 .text.__wrap_memcmp
                0x000000001ff65ba8       0x10 ../../../libs\libnewlib_port.a(sbrk.o)
                0x000000001ff65ba8                __wrap_memcmp
 .text.__wrap_memcpy
                0x000000001ff65bb8       0x10 ../../../libs\libnewlib_port.a(sbrk.o)
                0x000000001ff65bb8                __wrap_memcpy
 .text.__wrap_memmove
                0x000000001ff65bc8       0x10 ../../../libs\libnewlib_port.a(sbrk.o)
                0x000000001ff65bc8                __wrap_memmove
 .text.__wrap_memset
                0x000000001ff65bd8       0x10 ../../../libs\libnewlib_port.a(sbrk.o)
                0x000000001ff65bd8                __wrap_memset
 .text.__wrap_strcat
                0x000000001ff65be8        0xe ../../../libs\libnewlib_port.a(sbrk.o)
                0x000000001ff65be8                __wrap_strcat
 .text.__wrap_strcmp
                0x000000001ff65bf6        0xe ../../../libs\libnewlib_port.a(sbrk.o)
                0x000000001ff65bf6                __wrap_strcmp
 .text.__wrap_strcpy
                0x000000001ff65c04        0xe ../../../libs\libnewlib_port.a(sbrk.o)
                0x000000001ff65c04                __wrap_strcpy
 .text.__wrap_strlen
                0x000000001ff65c12        0xe ../../../libs\libnewlib_port.a(sbrk.o)
                0x000000001ff65c12                __wrap_strlen
 .text.__wrap_strncmp
                0x000000001ff65c20        0xe ../../../libs\libnewlib_port.a(sbrk.o)
                0x000000001ff65c20                __wrap_strncmp
 .text.__wrap_strncpy
                0x000000001ff65c2e        0xe ../../../libs\libnewlib_port.a(sbrk.o)
                0x000000001ff65c2e                __wrap_strncpy
 .text.__wrap_strstr
                0x000000001ff65c3c        0xe ../../../libs\libnewlib_port.a(sbrk.o)
                0x000000001ff65c3c                __wrap_strstr
 .text.__wrap_malloc
                0x000000001ff65c4a       0x10 ../../../libs\libnewlib_port.a(sbrk.o)
                0x000000001ff65c4a                __wrap_malloc
 .text.__wrap_free
                0x000000001ff65c5a       0x10 ../../../libs\libnewlib_port.a(sbrk.o)
                0x000000001ff65c5a                __wrap_free
 .text.__wrap_atoi
                0x000000001ff65c6a       0x2e ../../../libs\libnewlib_port.a(sbrk.o)
                0x000000001ff65c6a                __wrap_atoi
 *fill*         0x000000001ff65c98       0x28 
 .text.entry    0x000000001ff65cc0      0x5f4 ../../../libs\libfreertos_port.a(portasm.o)
                0x000000001ff65cc0                trap_entry
                0x000000001ff65db0                irq_entry
                0x000000001ff65f24                eclic_mtip_handler
                0x000000001ff65fe4                eclic_msip_handler
                0x000000001ff660c0                vPortYield_from_ulSynchTrap
                0x000000001ff66100                vPortYield
                0x000000001ff66230                xPortStartScheduler
                0x000000001ff662a0                vPortEndScheduler
 .text          0x000000001ff662b4       0x60 c:/riscv-nuclei-elf-gcc-9.2.0/gcc_fix_raissrc/bin/../lib/gcc/riscv-nuclei-elf/9.2.0/rv32imafc/ilp32f\libgcc.a(save-restore.o)
                0x000000001ff662b4                __riscv_save_12
                0x000000001ff662bc                __riscv_save_9
                0x000000001ff662bc                __riscv_save_11
                0x000000001ff662bc                __riscv_save_10
                0x000000001ff662bc                __riscv_save_8
                0x000000001ff662ca                __riscv_save_4
                0x000000001ff662ca                __riscv_save_6
                0x000000001ff662ca                __riscv_save_5
                0x000000001ff662ca                __riscv_save_7
                0x000000001ff662e4                __riscv_save_3
                0x000000001ff662e4                __riscv_save_2
                0x000000001ff662e4                __riscv_save_1
                0x000000001ff662e4                __riscv_save_0
                0x000000001ff662f0                __riscv_restore_12
                0x000000001ff662f4                __riscv_restore_11
                0x000000001ff662f4                __riscv_restore_9
                0x000000001ff662f4                __riscv_restore_10
                0x000000001ff662f4                __riscv_restore_8
                0x000000001ff662fe                __riscv_restore_5
                0x000000001ff662fe                __riscv_restore_7
                0x000000001ff662fe                __riscv_restore_6
                0x000000001ff662fe                __riscv_restore_4
                0x000000001ff66308                __riscv_restore_3
                0x000000001ff66308                __riscv_restore_0
                0x000000001ff66308                __riscv_restore_2
                0x000000001ff66308                __riscv_restore_1
 .text          0x000000001ff66314       0xae c:/riscv-nuclei-elf-gcc-9.2.0/gcc_fix_raissrc/bin/../lib/gcc/riscv-nuclei-elf/9.2.0/rv32imafc/ilp32f\libgcc.a(gedf2.o)
                0x000000001ff66314                __gedf2
                0x000000001ff66314                __gtdf2
 .text          0x000000001ff663c2       0xae c:/riscv-nuclei-elf-gcc-9.2.0/gcc_fix_raissrc/bin/../lib/gcc/riscv-nuclei-elf/9.2.0/rv32imafc/ilp32f\libgcc.a(ledf2.o)
                0x000000001ff663c2                __ledf2
                0x000000001ff663c2                __ltdf2
 .text          0x000000001ff66470       0xbc c:/riscv-nuclei-elf-gcc-9.2.0/gcc_fix_raissrc/bin/../lib/gcc/riscv-nuclei-elf/9.2.0/rv32imafc/ilp32f\libgcc.a(extendsfdf2.o)
                0x000000001ff66470                __extendsfdf2
 .text          0x000000001ff6652c       0x3c c:/riscv-nuclei-elf-gcc-9.2.0/gcc_fix_raissrc/bin/../lib/gcc/riscv-nuclei-elf/9.2.0/rv32imafc/ilp32f\libgcc.a(_clzsi2.o)
                0x000000001ff6652c                __clzsi2
 .text.atexit   0x000000001ff66568        0xa c:/riscv-nuclei-elf-gcc-9.2.0/gcc_fix_raissrc/bin/../lib/gcc/riscv-nuclei-elf/9.2.0/../../../../riscv-nuclei-elf/lib/rv32imafc/ilp32f\libg_nano.a(lib_a-atexit.o)
                0x000000001ff66568                atexit
 .text.exit     0x000000001ff66572       0x24 c:/riscv-nuclei-elf-gcc-9.2.0/gcc_fix_raissrc/bin/../lib/gcc/riscv-nuclei-elf/9.2.0/../../../../riscv-nuclei-elf/lib/rv32imafc/ilp32f\libg_nano.a(lib_a-exit.o)
                0x000000001ff66572                exit
 .text.__libc_fini_array
                0x000000001ff66596       0x3a c:/riscv-nuclei-elf-gcc-9.2.0/gcc_fix_raissrc/bin/../lib/gcc/riscv-nuclei-elf/9.2.0/../../../../riscv-nuclei-elf/lib/rv32imafc/ilp32f\libg_nano.a(lib_a-fini.o)
                0x000000001ff66596                __libc_fini_array
 .text.__libc_init_array
                0x000000001ff665d0       0x6e c:/riscv-nuclei-elf-gcc-9.2.0/gcc_fix_raissrc/bin/../lib/gcc/riscv-nuclei-elf/9.2.0/../../../../riscv-nuclei-elf/lib/rv32imafc/ilp32f\libg_nano.a(lib_a-init.o)
                0x000000001ff665d0                __libc_init_array
 .text.rand     0x000000001ff6663e       0x86 c:/riscv-nuclei-elf-gcc-9.2.0/gcc_fix_raissrc/bin/../lib/gcc/riscv-nuclei-elf/9.2.0/../../../../riscv-nuclei-elf/lib/rv32imafc/ilp32f\libg_nano.a(lib_a-rand.o)
                0x000000001ff6663e                rand
 .text.__register_exitproc
                0x000000001ff666c4       0x7c c:/riscv-nuclei-elf-gcc-9.2.0/gcc_fix_raissrc/bin/../lib/gcc/riscv-nuclei-elf/9.2.0/../../../../riscv-nuclei-elf/lib/rv32imafc/ilp32f\libg_nano.a(lib_a-__atexit.o)
                0x000000001ff666c4                __register_exitproc
 .text.__call_exitprocs
                0x000000001ff66740       0xc4 c:/riscv-nuclei-elf-gcc-9.2.0/gcc_fix_raissrc/bin/../lib/gcc/riscv-nuclei-elf/9.2.0/../../../../riscv-nuclei-elf/lib/rv32imafc/ilp32f\libg_nano.a(lib_a-__call_atexit.o)
                0x000000001ff66740                __call_exitprocs
 .text.strchr   0x000000001ff66804       0x1a c:/riscv-nuclei-elf-gcc-9.2.0/gcc_fix_raissrc/bin/../lib/gcc/riscv-nuclei-elf/9.2.0/../../../../riscv-nuclei-elf/lib/rv32imafc/ilp32f\libg_nano.a(lib_a-strchr.o)
                0x000000001ff66804                strchr
 .text._exit    0x000000001ff6681e       0x2a c:/riscv-nuclei-elf-gcc-9.2.0/gcc_fix_raissrc/bin/../lib/gcc/riscv-nuclei-elf/9.2.0/../../../../riscv-nuclei-elf/lib/rv32imafc/ilp32f\libgloss_nano.a(sys_exit.o)
                0x000000001ff6681e                _exit
 .text.__errno  0x000000001ff66848        0x6 c:/riscv-nuclei-elf-gcc-9.2.0/gcc_fix_raissrc/bin/../lib/gcc/riscv-nuclei-elf/9.2.0/../../../../riscv-nuclei-elf/lib/rv32imafc/ilp32f\libc_nano.a(lib_a-errno.o)
                0x000000001ff66848                __errno
 *(.gnu.linkonce.t.*)

.fini
 *(SORT_NONE(.fini))
                0x000000001ff66850                . = ALIGN (0x4)
                [!provide]                        PROVIDE (__etext = .)
                [!provide]                        PROVIDE (_etext = .)
                [!provide]                        PROVIDE (etext = .)
                0x000000001ff66850                PROVIDE (_eilm = .)

.preinit_array  0x000000001ff6684e        0x0
                0x000000001ff6684e                PROVIDE (__preinit_array_start = .)
 *(.preinit_array)
                0x000000001ff6684e                PROVIDE (__preinit_array_end = .)

.init_array     0x000000001ff6684e        0x0
                0x000000001ff6684e                PROVIDE (__init_array_start = .)
 *(SORT_BY_INIT_PRIORITY(.init_array.*) SORT_BY_INIT_PRIORITY(.ctors.*))
 *(.init_array EXCLUDE_FILE(*crtend?.o *crtend.o *crtbegin?.o *crtbegin.o) .ctors)
                0x000000001ff6684e                PROVIDE (__init_array_end = .)

.fini_array     0x000000001ff6684e        0x0
                0x000000001ff6684e                PROVIDE (__fini_array_start = .)
 *(SORT_BY_INIT_PRIORITY(.fini_array.*) SORT_BY_INIT_PRIORITY(.dtors.*))
 *(.fini_array EXCLUDE_FILE(*crtend?.o *crtend.o *crtbegin?.o *crtbegin.o) .dtors)
                0x000000001ff6684e                PROVIDE (__fini_array_end = .)

.ctors
 *crtbegin.o(.ctors)
 *crtbegin?.o(.ctors)
 *(EXCLUDE_FILE(*crtend?.o *crtend.o) .ctors)
 *(SORT_BY_NAME(.ctors.*))
 *(.ctors)

.dtors
 *crtbegin.o(.dtors)
 *crtbegin?.o(.dtors)
 *(EXCLUDE_FILE(*crtend?.o *crtend.o) .dtors)
 *(SORT_BY_NAME(.dtors.*))
 *(.dtors)

.ro_data        0x000000001ff66850     0x175c
 *(.rdata)
 *(.rodata .rodata.*)
 .rodata.pause_audio_play_prompt.constprop.0.str1.4
                0x000000001ff66850        0x7 C:\Users\cmshe\AppData\Local\Temp\cwsl_A_sample.elf.eOOQKS.ltrans0.ltrans.o
 *fill*         0x000000001ff66857        0x1 
 .rodata.get_special_symbols_count.constprop.0.str1.4
                0x000000001ff66858        0x6 C:\Users\cmshe\AppData\Local\Temp\cwsl_A_sample.elf.eOOQKS.ltrans0.ltrans.o
 *fill*         0x000000001ff6685e        0x2 
 .rodata.CI0081.isra.0.str1.4
                0x000000001ff66860       0x83 C:\Users\cmshe\AppData\Local\Temp\cwsl_A_sample.elf.eOOQKS.ltrans0.ltrans.o
 *fill*         0x000000001ff668e3        0x1 
 .rodata.CI0009.str1.4
                0x000000001ff668e4       0x85 C:\Users\cmshe\AppData\Local\Temp\cwsl_A_sample.elf.eOOQKS.ltrans0.ltrans.o
 .rodata.CI0072.lto_priv.0.str1.4
                0x000000001ff66969       0x85 C:\Users\cmshe\AppData\Local\Temp\cwsl_A_sample.elf.eOOQKS.ltrans0.ltrans.o
                                          0x1 (size before relaxing)
 *fill*         0x000000001ff66969        0x3 
 .rodata.CI0060.lto_priv.0.str1.4
                0x000000001ff6696c       0x11 C:\Users\cmshe\AppData\Local\Temp\cwsl_A_sample.elf.eOOQKS.ltrans0.ltrans.o
 *fill*         0x000000001ff6697d        0x3 
 .rodata.CI0054.lto_priv.0.str1.4
                0x000000001ff66980        0x6 C:\Users\cmshe\AppData\Local\Temp\cwsl_A_sample.elf.eOOQKS.ltrans0.ltrans.o
 *fill*         0x000000001ff66986        0x2 
 .rodata.nuclear_com_send.constprop.0.str1.4
                0x000000001ff66988        0xe C:\Users\cmshe\AppData\Local\Temp\cwsl_A_sample.elf.eOOQKS.ltrans0.ltrans.o
                                         0x16 (size before relaxing)
 *fill*         0x000000001ff66996        0x2 
 .rodata.post_erase_flash.constprop.0.str1.4
                0x000000001ff66998       0x3e C:\Users\cmshe\AppData\Local\Temp\cwsl_A_sample.elf.eOOQKS.ltrans0.ltrans.o
 *fill*         0x000000001ff669d6        0x2 
 .rodata.cm_get_pcm_buffer.constprop.0.str1.4
                0x000000001ff669d8       0x8b C:\Users\cmshe\AppData\Local\Temp\cwsl_A_sample.elf.eOOQKS.ltrans0.ltrans.o
 *fill*         0x000000001ff66a63        0x1 
 .rodata.cm_write_codec.constprop.0.str1.4
                0x000000001ff66a64       0x12 C:\Users\cmshe\AppData\Local\Temp\cwsl_A_sample.elf.eOOQKS.ltrans0.ltrans.o
 *fill*         0x000000001ff66a76        0x2 
 .rodata.IISDMA_ChannelIntENConfig.constprop.0.str1.4
                0x000000001ff66a78       0x1b C:\Users\cmshe\AppData\Local\Temp\cwsl_A_sample.elf.eOOQKS.ltrans0.ltrans.o
 *fill*         0x000000001ff66a93        0x1 
 .rodata.prompt_play_by_cmd_handle.constprop.0.str1.4
                0x000000001ff66a94       0x40 C:\Users\cmshe\AppData\Local\Temp\cwsl_A_sample.elf.eOOQKS.ltrans0.ltrans.o
 .rodata.cwsl_app_process_asr_msg.constprop.0
                0x000000001ff66ad4       0x28 C:\Users\cmshe\AppData\Local\Temp\cwsl_A_sample.elf.eOOQKS.ltrans0.ltrans.o
 .rodata.nn_output_callback.str1.4
                0x000000001ff66afc       0x1a C:\Users\cmshe\AppData\Local\Temp\cwsl_A_sample.elf.eOOQKS.ltrans0.ltrans.o
 *fill*         0x000000001ff66b16        0x2 
 .rodata.asrtop_asr_system_create_model.constprop.0.str1.4
                0x000000001ff66b18       0x2a C:\Users\cmshe\AppData\Local\Temp\cwsl_A_sample.elf.eOOQKS.ltrans0.ltrans.o
 *fill*         0x000000001ff66b42        0x2 
 .rodata.cwsl_manage_task.str1.4
                0x000000001ff66b44       0x5d C:\Users\cmshe\AppData\Local\Temp\cwsl_A_sample.elf.eOOQKS.ltrans0.ltrans.o
 *fill*         0x000000001ff66ba1        0x3 
 .rodata.cwsl_manage_task
                0x000000001ff66ba4       0x24 C:\Users\cmshe\AppData\Local\Temp\cwsl_A_sample.elf.eOOQKS.ltrans0.ltrans.o
 .rodata.__FUNCTION__.4163
                0x000000001ff66bc8       0x17 C:\Users\cmshe\AppData\Local\Temp\cwsl_A_sample.elf.eOOQKS.ltrans0.ltrans.o
 *fill*         0x000000001ff66bdf        0x1 
 .rodata.__FUNCTION__.5734
                0x000000001ff66be0       0x11 C:\Users\cmshe\AppData\Local\Temp\cwsl_A_sample.elf.eOOQKS.ltrans0.ltrans.o
 *fill*         0x000000001ff66bf1        0x3 
 .rodata.aec_config
                0x000000001ff66bf4       0x2c C:\Users\cmshe\AppData\Local\Temp\cwsl_A_sample.elf.eOOQKS.ltrans0.ltrans.o
 .rodata.alc_auto_switch_config
                0x000000001ff66c20       0x1c C:\Users\cmshe\AppData\Local\Temp\cwsl_A_sample.elf.eOOQKS.ltrans0.ltrans.o
 .rodata.reg_cmd_list
                0x000000001ff66c3c       0x20 C:\Users\cmshe\AppData\Local\Temp\cwsl_A_sample.elf.eOOQKS.ltrans0.ltrans.o
                0x000000001ff66c3c                reg_cmd_list
 .rodata.sg_min_states_tab
                0x000000001ff66c5c       0x10 C:\Users\cmshe\AppData\Local\Temp\cwsl_A_sample.elf.eOOQKS.ltrans0.ltrans.o
 .rodata.stft_istft_config
                0x000000001ff66c6c       0x20 C:\Users\cmshe\AppData\Local\Temp\cwsl_A_sample.elf.eOOQKS.ltrans0.ltrans.o
 .rodata.decoder_set_misrecognition
                0x000000001ff66c8c       0x14 C:\Users\cmshe\AppData\Local\Temp\cwsl_A_sample.elf.eOOQKS.ltrans1.ltrans.o
 .rodata.resume_asr.str1.4
                0x000000001ff66ca0       0x10 C:\Users\cmshe\AppData\Local\Temp\cwsl_A_sample.elf.eOOQKS.ltrans1.ltrans.o
 .rodata.decoder_lm_type_cfg.str1.4
                0x000000001ff66cb0        0x2 C:\Users\cmshe\AppData\Local\Temp\cwsl_A_sample.elf.eOOQKS.ltrans1.ltrans.o
                                          0x6 (size before relaxing)
 *fill*         0x000000001ff66cb2        0x2 
 .rodata.decoder_lm_type_cfg
                0x000000001ff66cb4       0x14 C:\Users\cmshe\AppData\Local\Temp\cwsl_A_sample.elf.eOOQKS.ltrans1.ltrans.o
 .rodata.codec_manage_inner_serve_cb
                0x000000001ff66cc8       0x14 C:\Users\cmshe\AppData\Local\Temp\cwsl_A_sample.elf.eOOQKS.ltrans1.ltrans.o
 .rodata.judge_hasresult_early.str1.4
                0x000000001ff66cdc        0x5 C:\Users\cmshe\AppData\Local\Temp\cwsl_A_sample.elf.eOOQKS.ltrans1.ltrans.o
 .rodata.mailbox_send_msg.str1.4
                0x000000001ff66cdc       0x27 C:\Users\cmshe\AppData\Local\Temp\cwsl_A_sample.elf.eOOQKS.ltrans1.ltrans.o
                                         0x2f (size before relaxing)
 .rodata.remote_call_task.str1.4
                0x000000001ff66d03        0xe C:\Users\cmshe\AppData\Local\Temp\cwsl_A_sample.elf.eOOQKS.ltrans1.ltrans.o
 *fill*         0x000000001ff66d03        0x1 
 .rodata.nuclear_com_irq_handler.str1.4
                0x000000001ff66d04       0x20 C:\Users\cmshe\AppData\Local\Temp\cwsl_A_sample.elf.eOOQKS.ltrans1.ltrans.o
 .rodata.ulSynchTrap.str1.4
                0x000000001ff66d24       0x12 C:\Users\cmshe\AppData\Local\Temp\cwsl_A_sample.elf.eOOQKS.ltrans1.ltrans.o
 .rodata.flash_manage_req_wait_op_done_sem.lto_priv.0.str1.4
                0x000000001ff66d24        0xd C:\Users\cmshe\AppData\Local\Temp\cwsl_A_sample.elf.eOOQKS.ltrans1.ltrans.o
 *fill*         0x000000001ff66d31        0x3 
 .rodata.decoder_switchfst_done.str1.4
                0x000000001ff66d34        0xe C:\Users\cmshe\AppData\Local\Temp\cwsl_A_sample.elf.eOOQKS.ltrans1.ltrans.o
 *fill*         0x000000001ff66d42        0x2 
 .rodata.decoder_engine_graph_check.str1.4
                0x000000001ff66d44       0xa7 C:\Users\cmshe\AppData\Local\Temp\cwsl_A_sample.elf.eOOQKS.ltrans1.ltrans.o
 *fill*         0x000000001ff66deb        0x1 
 .rodata.decoder_parameter_cfg.str1.4
                0x000000001ff66dec       0x6e C:\Users\cmshe\AppData\Local\Temp\cwsl_A_sample.elf.eOOQKS.ltrans1.ltrans.o
 *fill*         0x000000001ff66e5a        0x2 
 .rodata.decoder_rpmsg_serve_cb
                0x000000001ff66e5c       0x50 C:\Users\cmshe\AppData\Local\Temp\cwsl_A_sample.elf.eOOQKS.ltrans1.ltrans.o
 .rodata.asr_top_outside_serve_cb.str1.4
                0x000000001ff66eac        0xd C:\Users\cmshe\AppData\Local\Temp\cwsl_A_sample.elf.eOOQKS.ltrans1.ltrans.o
 *fill*         0x000000001ff66eb9        0x3 
 .rodata.on_cwsl_record_end.str1.4
                0x000000001ff66ebc       0x25 C:\Users\cmshe\AppData\Local\Temp\cwsl_A_sample.elf.eOOQKS.ltrans1.ltrans.o
 *fill*         0x000000001ff66ee1        0x3 
 .rodata.on_cwsl_reg_start.str1.4
                0x000000001ff66ee4       0x1e C:\Users\cmshe\AppData\Local\Temp\cwsl_A_sample.elf.eOOQKS.ltrans1.ltrans.o
 *fill*         0x000000001ff66f02        0x2 
 .rodata.exit_wakeup_deal.str1.4
                0x000000001ff66f04        0xc C:\Users\cmshe\AppData\Local\Temp\cwsl_A_sample.elf.eOOQKS.ltrans1.ltrans.o
 .rodata.main.str1.4
                0x000000001ff66f10       0xb0 C:\Users\cmshe\AppData\Local\Temp\cwsl_A_sample.elf.eOOQKS.ltrans1.ltrans.o
                                         0xb4 (size before relaxing)
 .rodata.IIC0_IRQHandler.str1.4
                0x000000001ff66fc0       0x1a C:\Users\cmshe\AppData\Local\Temp\cwsl_A_sample.elf.eOOQKS.ltrans1.ltrans.o
 *fill*         0x000000001ff66fda        0x2 
 .rodata.iis_wait_load_ctrl.str1.4
                0x000000001ff66fdc       0x18 C:\Users\cmshe\AppData\Local\Temp\cwsl_A_sample.elf.eOOQKS.ltrans1.ltrans.o
 .rodata.IISxDMA_TADDR1.part.0.str1.4
                0x000000001ff66ff4       0x1b C:\Users\cmshe\AppData\Local\Temp\cwsl_A_sample.elf.eOOQKS.ltrans1.ltrans.o
 .rodata.IISDMA_ADDRRollBackINT.part.0.str1.4
                0x000000001ff66ff4       0x1d C:\Users\cmshe\AppData\Local\Temp\cwsl_A_sample.elf.eOOQKS.ltrans1.ltrans.o
 *fill*         0x000000001ff67011        0x3 
 .rodata.cm_input_interrupt_handler.str1.4
                0x000000001ff67014       0x19 C:\Users\cmshe\AppData\Local\Temp\cwsl_A_sample.elf.eOOQKS.ltrans1.ltrans.o
 *fill*         0x000000001ff6702d        0x3 
 .rodata.asr_result_callback.str1.4
                0x000000001ff67030       0x57 C:\Users\cmshe\AppData\Local\Temp\cwsl_A_sample.elf.eOOQKS.ltrans1.ltrans.o
 *fill*         0x000000001ff67087        0x1 
 .rodata.audio_in_manage_inner_task.str1.4
                0x000000001ff67088       0xa9 C:\Users\cmshe\AppData\Local\Temp\cwsl_A_sample.elf.eOOQKS.ltrans1.ltrans.o
                                         0xdd (size before relaxing)
 *fill*         0x000000001ff67131        0x3 
 .rodata.prompt_play_inner.isra.0.lto_priv.0.str1.4
                0x000000001ff67134       0x1c C:\Users\cmshe\AppData\Local\Temp\cwsl_A_sample.elf.eOOQKS.ltrans1.ltrans.o
                                         0x38 (size before relaxing)
 .rodata.cmd_file_change_cur_model_group.str1.4
                0x000000001ff67150       0x19 C:\Users\cmshe\AppData\Local\Temp\cwsl_A_sample.elf.eOOQKS.ltrans1.ltrans.o
 *fill*         0x000000001ff67169        0x3 
 .rodata.cmd_info_change_cur_model_group.part.0.str1.4
                0x000000001ff6716c       0x14 C:\Users\cmshe\AppData\Local\Temp\cwsl_A_sample.elf.eOOQKS.ltrans1.ltrans.o
 .rodata.cinv_port_mutex_give.str1.4
                0x000000001ff67180        0xb C:\Users\cmshe\AppData\Local\Temp\cwsl_A_sample.elf.eOOQKS.ltrans1.ltrans.o
 *fill*         0x000000001ff6718b        0x1 
 .rodata.UserTaskManageProcess.str1.4
                0x000000001ff6718c       0x6c C:\Users\cmshe\AppData\Local\Temp\cwsl_A_sample.elf.eOOQKS.ltrans1.ltrans.o
 .rodata.UserTaskManageProcess
                0x000000001ff671f8       0x40 C:\Users\cmshe\AppData\Local\Temp\cwsl_A_sample.elf.eOOQKS.ltrans1.ltrans.o
 .rodata.decoder_manage_task.str1.4
                0x000000001ff67238       0x40 C:\Users\cmshe\AppData\Local\Temp\cwsl_A_sample.elf.eOOQKS.ltrans1.ltrans.o
 .rodata.decoder_manage_task
                0x000000001ff67278       0x94 C:\Users\cmshe\AppData\Local\Temp\cwsl_A_sample.elf.eOOQKS.ltrans1.ltrans.o
 .rodata.task_init.str1.4
                0x000000001ff6730c      0x3a3 C:\Users\cmshe\AppData\Local\Temp\cwsl_A_sample.elf.eOOQKS.ltrans1.ltrans.o
                                        0x3b3 (size before relaxing)
 *fill*         0x000000001ff676af        0x1 
 .rodata.str1.4
                0x000000001ff676b0        0x4 C:\Users\cmshe\AppData\Local\Temp\cwsl_A_sample.elf.eOOQKS.ltrans1.ltrans.o
                                          0xb (size before relaxing)
 .rodata        0x000000001ff676b4       0x88 C:\Users\cmshe\AppData\Local\Temp\cwsl_A_sample.elf.eOOQKS.ltrans1.ltrans.o
 .rodata.__FUNCTION__.3894
                0x000000001ff6773c        0xd C:\Users\cmshe\AppData\Local\Temp\cwsl_A_sample.elf.eOOQKS.ltrans1.ltrans.o
 *fill*         0x000000001ff67749        0x3 
 .rodata.__FUNCTION__.5447
                0x000000001ff6774c        0xa C:\Users\cmshe\AppData\Local\Temp\cwsl_A_sample.elf.eOOQKS.ltrans1.ltrans.o
 *fill*         0x000000001ff67756        0x2 
 .rodata.__FUNCTION__.6067
                0x000000001ff67758       0x14 C:\Users\cmshe\AppData\Local\Temp\cwsl_A_sample.elf.eOOQKS.ltrans1.ltrans.o
 .rodata.__FUNCTION__.6893
                0x000000001ff6776c       0x15 C:\Users\cmshe\AppData\Local\Temp\cwsl_A_sample.elf.eOOQKS.ltrans1.ltrans.o
 *fill*         0x000000001ff67781        0x3 
 .rodata.__FUNCTION__.6901
                0x000000001ff67784       0x16 C:\Users\cmshe\AppData\Local\Temp\cwsl_A_sample.elf.eOOQKS.ltrans1.ltrans.o
 *fill*         0x000000001ff6779a        0x2 
 .rodata.__FUNCTION__.7381
                0x000000001ff6779c       0x16 C:\Users\cmshe\AppData\Local\Temp\cwsl_A_sample.elf.eOOQKS.ltrans1.ltrans.o
 *fill*         0x000000001ff677b2        0x2 
 .rodata.__func__.4150
                0x000000001ff677b4       0x16 C:\Users\cmshe\AppData\Local\Temp\cwsl_A_sample.elf.eOOQKS.ltrans1.ltrans.o
 *fill*         0x000000001ff677ca        0x2 
 .rodata.__func__.4154
                0x000000001ff677cc       0x15 C:\Users\cmshe\AppData\Local\Temp\cwsl_A_sample.elf.eOOQKS.ltrans1.ltrans.o
 *fill*         0x000000001ff677e1        0x3 
 .rodata.__func__.4158
                0x000000001ff677e4       0x15 C:\Users\cmshe\AppData\Local\Temp\cwsl_A_sample.elf.eOOQKS.ltrans1.ltrans.o
 *fill*         0x000000001ff677f9        0x3 
 .rodata.host_mic_hw_info
                0x000000001ff677fc       0x54 C:\Users\cmshe\AppData\Local\Temp\cwsl_A_sample.elf.eOOQKS.ltrans1.ltrans.o
 .rodata.over_sample_table.6098
                0x000000001ff67850       0x10 C:\Users\cmshe\AppData\Local\Temp\cwsl_A_sample.elf.eOOQKS.ltrans1.ltrans.o
 .rodata.table_crc8
                0x000000001ff67860      0x100 C:\Users\cmshe\AppData\Local\Temp\cwsl_A_sample.elf.eOOQKS.ltrans1.ltrans.o
 .rodata.audio_play_ms_wav_decode.str1.4
                0x000000001ff67960        0xd C:\Users\cmshe\AppData\Local\Temp\cwsl_A_sample.elf.eOOQKS.ltrans2.ltrans.o
 *fill*         0x000000001ff6796d        0x3 
 .rodata.audio_play_prompt_config.str1.4
                0x000000001ff67970       0x10 C:\Users\cmshe\AppData\Local\Temp\cwsl_A_sample.elf.eOOQKS.ltrans2.ltrans.o
 .rodata.audio_play_mp3_decode.str1.4
                0x000000001ff67980       0x6d C:\Users\cmshe\AppData\Local\Temp\cwsl_A_sample.elf.eOOQKS.ltrans2.ltrans.o
 *fill*         0x000000001ff679ed        0x3 
 .rodata.audio_play_mp3_init.str1.4
                0x000000001ff679f0       0x21 C:\Users\cmshe\AppData\Local\Temp\cwsl_A_sample.elf.eOOQKS.ltrans2.ltrans.o
 *fill*         0x000000001ff67a11        0x3 
 .rodata.get_file_table.str1.4
                0x000000001ff67a14       0x1f C:\Users\cmshe\AppData\Local\Temp\cwsl_A_sample.elf.eOOQKS.ltrans2.ltrans.o
 *fill*         0x000000001ff67a33        0x1 
 .rodata.get_current_model_addr.str1.4
                0x000000001ff67a34       0x15 C:\Users\cmshe\AppData\Local\Temp\cwsl_A_sample.elf.eOOQKS.ltrans2.ltrans.o
 *fill*         0x000000001ff67a49        0x3 
 .rodata.flash_control_inner_serve_cb.str1.4
                0x000000001ff67a4c       0x1d C:\Users\cmshe\AppData\Local\Temp\cwsl_A_sample.elf.eOOQKS.ltrans2.ltrans.o
                                         0x21 (size before relaxing)
 *fill*         0x000000001ff67a69        0x3 
 .rodata.prvTimerTask.lto_priv.0
                0x000000001ff67a6c       0x28 C:\Users\cmshe\AppData\Local\Temp\cwsl_A_sample.elf.eOOQKS.ltrans2.ltrans.o
 .rodata.pause_read_data.str1.4
                0x000000001ff67a94       0x30 C:\Users\cmshe\AppData\Local\Temp\cwsl_A_sample.elf.eOOQKS.ltrans2.ltrans.o
 .rodata.task_get_play_data.str1.4
                0x000000001ff67ac4       0x69 C:\Users\cmshe\AppData\Local\Temp\cwsl_A_sample.elf.eOOQKS.ltrans2.ltrans.o
                                         0x97 (size before relaxing)
 *fill*         0x000000001ff67b2d        0x3 
 .rodata.prvCheckForValidListAndQueue.lto_priv.0.str1.4
                0x000000001ff67b30        0x5 C:\Users\cmshe\AppData\Local\Temp\cwsl_A_sample.elf.eOOQKS.ltrans2.ltrans.o
 *fill*         0x000000001ff67b35        0x3 
 .rodata.audio_play_decode_continue.str1.4
                0x000000001ff67b38       0xb3 C:\Users\cmshe\AppData\Local\Temp\cwsl_A_sample.elf.eOOQKS.ltrans2.ltrans.o
                                         0xd3 (size before relaxing)
 *fill*         0x000000001ff67beb        0x1 
 .rodata.task_audio_play.str1.4
                0x000000001ff67bec      0x156 C:\Users\cmshe\AppData\Local\Temp\cwsl_A_sample.elf.eOOQKS.ltrans2.ltrans.o
 *fill*         0x000000001ff67d42        0x2 
 .rodata.handle_trap.str1.4
                0x000000001ff67d44       0x60 C:\Users\cmshe\AppData\Local\Temp\cwsl_A_sample.elf.eOOQKS.ltrans2.ltrans.o
                                         0x5d (size before relaxing)
 .rodata        0x000000001ff67da4       0x8c C:\Users\cmshe\AppData\Local\Temp\cwsl_A_sample.elf.eOOQKS.ltrans2.ltrans.o
 .rodata.IndexTable
                0x000000001ff67e30       0x10 C:\Users\cmshe\AppData\Local\Temp\cwsl_A_sample.elf.eOOQKS.ltrans2.ltrans.o
 .rodata.__FUNCTION__.5250
                0x000000001ff67e40       0x13 C:\Users\cmshe\AppData\Local\Temp\cwsl_A_sample.elf.eOOQKS.ltrans2.ltrans.o
 *fill*         0x000000001ff67e53        0x1 
 .rodata.__FUNCTION__.6512
                0x000000001ff67e54       0x1b C:\Users\cmshe\AppData\Local\Temp\cwsl_A_sample.elf.eOOQKS.ltrans2.ltrans.o
 *fill*         0x000000001ff67e6f        0x1 
 .rodata.__FUNCTION__.6543
                0x000000001ff67e70       0x12 C:\Users\cmshe\AppData\Local\Temp\cwsl_A_sample.elf.eOOQKS.ltrans2.ltrans.o
 *fill*         0x000000001ff67e82        0x2 
 .rodata.__FUNCTION__.6675
                0x000000001ff67e84       0x10 C:\Users\cmshe\AppData\Local\Temp\cwsl_A_sample.elf.eOOQKS.ltrans2.ltrans.o
 .rodata.sbrk.str1.4
                0x000000001ff67e94       0x18 ../../../libs\libnewlib_port.a(sbrk.o)
 .rodata        0x000000001ff67eac      0x100 c:/riscv-nuclei-elf-gcc-9.2.0/gcc_fix_raissrc/bin/../lib/gcc/riscv-nuclei-elf/9.2.0/rv32imafc/ilp32f\libgcc.a(_clz.o)
                0x000000001ff67eac                __clz_tab

.rela.dyn       0x000000001ff67fac        0x0
 .rela.init     0x000000001ff67fac        0x0 build/objs/ci130x_vtable.o
 .rela.load_addr
                0x000000001ff67fac        0x0 build/objs/ci130x_vtable.o
 .rela.text.sbrk
                0x000000001ff67fac        0x0 build/objs/ci130x_vtable.o
 .rela.sdata.currentHeapEnd.5595
                0x000000001ff67fac        0x0 build/objs/ci130x_vtable.o
 .rela.text.entry
                0x000000001ff67fac        0x0 build/objs/ci130x_vtable.o
 .rela.text.__libc_fini_array
                0x000000001ff67fac        0x0 build/objs/ci130x_vtable.o
 .rela.data.impure_data
                0x000000001ff67fac        0x0 build/objs/ci130x_vtable.o
 .rela.text.__libc_init_array
                0x000000001ff67fac        0x0 build/objs/ci130x_vtable.o
 .rela.text.__register_exitproc
                0x000000001ff67fac        0x0 build/objs/ci130x_vtable.o
 .rela.text.startup.main
                0x000000001ff67fac        0x0 build/objs/ci130x_vtable.o
 .rela.text.task_init
                0x000000001ff67fac        0x0 build/objs/ci130x_vtable.o
 .rela.text.pvPortMalloc
                0x000000001ff67fac        0x0 build/objs/ci130x_vtable.o
 .rela.text.handle_trap
                0x000000001ff67fac        0x0 build/objs/ci130x_vtable.o
 .rela.text._init
                0x000000001ff67fac        0x0 build/objs/ci130x_vtable.o

.lalign         0x000000001ff67fac        0x0
                0x000000001ff67fac                . = ALIGN (0x4)
                0x000000001ff67fac                PROVIDE (_data_lma = .)

.dalign         0x000000001ff67fac        0x0
                0x000000001ff67fac                . = ALIGN (0x4)
                0x000000001ff67fac                PROVIDE (_data = .)

.data           0x000000001ff67fb0     0x1e0c
 *(.gnu.linkonce.r.*)
 *(.data .data.*)
 .data.audio_capture
                0x000000001ff67fb0        0xc C:\Users\cmshe\AppData\Local\Temp\cwsl_A_sample.elf.eOOQKS.ltrans0.ltrans.o
                0x000000001ff67fb0                audio_capture
 .data.ci_ssp   0x000000001ff67fbc       0x90 C:\Users\cmshe\AppData\Local\Temp\cwsl_A_sample.elf.eOOQKS.ltrans0.ltrans.o
                0x000000001ff67fbc                ci_ssp
 .data.prompt_player.lto_priv.0
                0x000000001ff6804c       0x54 C:\Users\cmshe\AppData\Local\Temp\cwsl_A_sample.elf.eOOQKS.ltrans0.ltrans.o
                0x000000001ff6804c                prompt_player.lto_priv.0
 .data.bye_pro  0x000000001ff680a0       0x1c C:\Users\cmshe\AppData\Local\Temp\cwsl_A_sample.elf.eOOQKS.ltrans1.ltrans.o
 .data.cached_flash_reader_info.lto_priv.0
                0x000000001ff680bc       0x10 C:\Users\cmshe\AppData\Local\Temp\cwsl_A_sample.elf.eOOQKS.ltrans1.ltrans.o
                0x000000001ff680bc                cached_flash_reader_info.lto_priv.0
 .data.mp3_decoder
                0x000000001ff680cc       0x28 C:\Users\cmshe\AppData\Local\Temp\cwsl_A_sample.elf.eOOQKS.ltrans1.ltrans.o
 .data.prompt_decoder
                0x000000001ff680f4       0x28 C:\Users\cmshe\AppData\Local\Temp\cwsl_A_sample.elf.eOOQKS.ltrans1.ltrans.o
                0x000000001ff680f4                prompt_decoder
 .data.recv_data
                0x000000001ff6811c      0xf34 C:\Users\cmshe\AppData\Local\Temp\cwsl_A_sample.elf.eOOQKS.ltrans1.ltrans.o
 .data.send_data
                0x000000001ff69050      0xb98 C:\Users\cmshe\AppData\Local\Temp\cwsl_A_sample.elf.eOOQKS.ltrans1.ltrans.o
 .data.welcome_pro
                0x000000001ff69be8       0x1c C:\Users\cmshe\AppData\Local\Temp\cwsl_A_sample.elf.eOOQKS.ltrans1.ltrans.o
 .data.impure_data
                0x000000001ff69c04       0x60 c:/riscv-nuclei-elf-gcc-9.2.0/gcc_fix_raissrc/bin/../lib/gcc/riscv-nuclei-elf/9.2.0/../../../../riscv-nuclei-elf/lib/rv32imafc/ilp32f\libg_nano.a(lib_a-impure.o)
 *(.gnu.linkonce.d.*)
                0x000000001ff69c68                . = ALIGN (0x8)
 *fill*         0x000000001ff69c64        0x4 
                0x000000001ff6a468                PROVIDE (__global_pointer$ = (. + 0x800))
 *(.sdata .sdata.* .sdata*)
 .sdata.sg_cwslword_maxnum
                0x000000001ff69c68        0x2 C:\Users\cmshe\AppData\Local\Temp\cwsl_A_sample.elf.eOOQKS.ltrans0.ltrans.o
 *fill*         0x000000001ff69c6a        0x2 
 .sdata.sg_good_phone_vld_th_en
                0x000000001ff69c6c        0x4 C:\Users\cmshe\AppData\Local\Temp\cwsl_A_sample.elf.eOOQKS.ltrans0.ltrans.o
                0x000000001ff69c6c                sg_good_phone_vld_th_en
 .sdata.start_flag
                0x000000001ff69c70        0x4 C:\Users\cmshe\AppData\Local\Temp\cwsl_A_sample.elf.eOOQKS.ltrans0.ltrans.o
 .sdata2.iis_out_audio_config
                0x000000001ff69c74        0x5 C:\Users\cmshe\AppData\Local\Temp\cwsl_A_sample.elf.eOOQKS.ltrans0.ltrans.o
 *fill*         0x000000001ff69c79        0x3 
 .sdata.cmd_file_start_addr_in_flash
                0x000000001ff69c7c        0x4 C:\Users\cmshe\AppData\Local\Temp\cwsl_A_sample.elf.eOOQKS.ltrans1.ltrans.o
 .sdata.g_freq_correct_factor
                0x000000001ff69c80        0x4 C:\Users\cmshe\AppData\Local\Temp\cwsl_A_sample.elf.eOOQKS.ltrans1.ltrans.o
                0x000000001ff69c80                g_freq_correct_factor
 .sdata.power_on_flag
                0x000000001ff69c84        0x4 C:\Users\cmshe\AppData\Local\Temp\cwsl_A_sample.elf.eOOQKS.ltrans1.ltrans.o
 .sdata.sg_adpt_skpdecode_flag
                0x000000001ff69c88        0x1 C:\Users\cmshe\AppData\Local\Temp\cwsl_A_sample.elf.eOOQKS.ltrans1.ltrans.o
 .sdata.sg_cwsl_cmdword_threshold
                0x000000001ff69c89        0x1 C:\Users\cmshe\AppData\Local\Temp\cwsl_A_sample.elf.eOOQKS.ltrans1.ltrans.o
 .sdata.sg_cwsl_wakeup_threshold
                0x000000001ff69c8a        0x1 C:\Users\cmshe\AppData\Local\Temp\cwsl_A_sample.elf.eOOQKS.ltrans1.ltrans.o
 *fill*         0x000000001ff69c8b        0x1 
 .sdata.sg_dynmic_confidence_max
                0x000000001ff69c8c        0x4 C:\Users\cmshe\AppData\Local\Temp\cwsl_A_sample.elf.eOOQKS.ltrans1.ltrans.o
 .sdata.sg_dynmic_confidence_min
                0x000000001ff69c90        0x4 C:\Users\cmshe\AppData\Local\Temp\cwsl_A_sample.elf.eOOQKS.ltrans1.ltrans.o
 .sdata.sg_dynmic_confidence_step
                0x000000001ff69c94        0x4 C:\Users\cmshe\AppData\Local\Temp\cwsl_A_sample.elf.eOOQKS.ltrans1.ltrans.o
 .sdata.trans_blk
                0x000000001ff69c98        0x2 C:\Users\cmshe\AppData\Local\Temp\cwsl_A_sample.elf.eOOQKS.ltrans1.ltrans.o
 .sdata.trans_off
                0x000000001ff69c9a        0x2 C:\Users\cmshe\AppData\Local\Temp\cwsl_A_sample.elf.eOOQKS.ltrans1.ltrans.o
 .sdata.uxCriticalNesting
                0x000000001ff69c9c        0x4 C:\Users\cmshe\AppData\Local\Temp\cwsl_A_sample.elf.eOOQKS.ltrans1.ltrans.o
 .sdata2.host_mic_sound_info
                0x000000001ff69ca0        0x8 C:\Users\cmshe\AppData\Local\Temp\cwsl_A_sample.elf.eOOQKS.ltrans1.ltrans.o
 .sdata2.mailbox_ports
                0x000000001ff69ca8        0x8 C:\Users\cmshe\AppData\Local\Temp\cwsl_A_sample.elf.eOOQKS.ltrans1.ltrans.o
 .sdata.a0_string
                0x000000001ff69cb0        0x3 C:\Users\cmshe\AppData\Local\Temp\cwsl_A_sample.elf.eOOQKS.ltrans2.ltrans.o
 *fill*         0x000000001ff69cb3        0x1 
 .sdata.a1_string
                0x000000001ff69cb4        0x3 C:\Users\cmshe\AppData\Local\Temp\cwsl_A_sample.elf.eOOQKS.ltrans2.ltrans.o
 *fill*         0x000000001ff69cb7        0x1 
 .sdata.a2_string
                0x000000001ff69cb8        0x3 C:\Users\cmshe\AppData\Local\Temp\cwsl_A_sample.elf.eOOQKS.ltrans2.ltrans.o
 *fill*         0x000000001ff69cbb        0x1 
 .sdata.a3_string
                0x000000001ff69cbc        0x3 C:\Users\cmshe\AppData\Local\Temp\cwsl_A_sample.elf.eOOQKS.ltrans2.ltrans.o
 *fill*         0x000000001ff69cbf        0x1 
 .sdata.a4_string
                0x000000001ff69cc0        0x3 C:\Users\cmshe\AppData\Local\Temp\cwsl_A_sample.elf.eOOQKS.ltrans2.ltrans.o
 *fill*         0x000000001ff69cc3        0x1 
 .sdata.a5_string
                0x000000001ff69cc4        0x3 C:\Users\cmshe\AppData\Local\Temp\cwsl_A_sample.elf.eOOQKS.ltrans2.ltrans.o
 *fill*         0x000000001ff69cc7        0x1 
 .sdata.a6_string
                0x000000001ff69cc8        0x3 C:\Users\cmshe\AppData\Local\Temp\cwsl_A_sample.elf.eOOQKS.ltrans2.ltrans.o
 *fill*         0x000000001ff69ccb        0x1 
 .sdata.a7_string
                0x000000001ff69ccc        0x3 C:\Users\cmshe\AppData\Local\Temp\cwsl_A_sample.elf.eOOQKS.ltrans2.ltrans.o
 *fill*         0x000000001ff69ccf        0x1 
 .sdata.adpcm_nSamplesPerSec
                0x000000001ff69cd0        0x4 C:\Users\cmshe\AppData\Local\Temp\cwsl_A_sample.elf.eOOQKS.ltrans2.ltrans.o
 .sdata.fp_string
                0x000000001ff69cd4        0x3 C:\Users\cmshe\AppData\Local\Temp\cwsl_A_sample.elf.eOOQKS.ltrans2.ltrans.o
 *fill*         0x000000001ff69cd7        0x1 
 .sdata.gp_string
                0x000000001ff69cd8        0x3 C:\Users\cmshe\AppData\Local\Temp\cwsl_A_sample.elf.eOOQKS.ltrans2.ltrans.o
 *fill*         0x000000001ff69cdb        0x1 
 .sdata.mcause_string
                0x000000001ff69cdc        0x7 C:\Users\cmshe\AppData\Local\Temp\cwsl_A_sample.elf.eOOQKS.ltrans2.ltrans.o
 *fill*         0x000000001ff69ce3        0x1 
 .sdata.mepc_string
                0x000000001ff69ce4        0x5 C:\Users\cmshe\AppData\Local\Temp\cwsl_A_sample.elf.eOOQKS.ltrans2.ltrans.o
 *fill*         0x000000001ff69ce9        0x3 
 .sdata.mstatus_string
                0x000000001ff69cec        0x8 C:\Users\cmshe\AppData\Local\Temp\cwsl_A_sample.elf.eOOQKS.ltrans2.ltrans.o
 .sdata.msubm_string
                0x000000001ff69cf4        0x6 C:\Users\cmshe\AppData\Local\Temp\cwsl_A_sample.elf.eOOQKS.ltrans2.ltrans.o
 *fill*         0x000000001ff69cfa        0x2 
 .sdata.play_end_cb_flag
                0x000000001ff69cfc        0x4 C:\Users\cmshe\AppData\Local\Temp\cwsl_A_sample.elf.eOOQKS.ltrans2.ltrans.o
 .sdata.play_end_flag
                0x000000001ff69d00        0x4 C:\Users\cmshe\AppData\Local\Temp\cwsl_A_sample.elf.eOOQKS.ltrans2.ltrans.o
 .sdata.ra_string
                0x000000001ff69d04        0x3 C:\Users\cmshe\AppData\Local\Temp\cwsl_A_sample.elf.eOOQKS.ltrans2.ltrans.o
 *fill*         0x000000001ff69d07        0x1 
 .sdata.receive_timeout_ticks
                0x000000001ff69d08        0x4 C:\Users\cmshe\AppData\Local\Temp\cwsl_A_sample.elf.eOOQKS.ltrans2.ltrans.o
 .sdata.s10_string
                0x000000001ff69d0c        0x4 C:\Users\cmshe\AppData\Local\Temp\cwsl_A_sample.elf.eOOQKS.ltrans2.ltrans.o
 .sdata.s11_string
                0x000000001ff69d10        0x4 C:\Users\cmshe\AppData\Local\Temp\cwsl_A_sample.elf.eOOQKS.ltrans2.ltrans.o
 .sdata.s1_string
                0x000000001ff69d14        0x3 C:\Users\cmshe\AppData\Local\Temp\cwsl_A_sample.elf.eOOQKS.ltrans2.ltrans.o
 *fill*         0x000000001ff69d17        0x1 
 .sdata.s2_string
                0x000000001ff69d18        0x3 C:\Users\cmshe\AppData\Local\Temp\cwsl_A_sample.elf.eOOQKS.ltrans2.ltrans.o
 *fill*         0x000000001ff69d1b        0x1 
 .sdata.s3_string
                0x000000001ff69d1c        0x3 C:\Users\cmshe\AppData\Local\Temp\cwsl_A_sample.elf.eOOQKS.ltrans2.ltrans.o
 *fill*         0x000000001ff69d1f        0x1 
 .sdata.s4_string
                0x000000001ff69d20        0x3 C:\Users\cmshe\AppData\Local\Temp\cwsl_A_sample.elf.eOOQKS.ltrans2.ltrans.o
 *fill*         0x000000001ff69d23        0x1 
 .sdata.s5_string
                0x000000001ff69d24        0x3 C:\Users\cmshe\AppData\Local\Temp\cwsl_A_sample.elf.eOOQKS.ltrans2.ltrans.o
 *fill*         0x000000001ff69d27        0x1 
 .sdata.s6_string
                0x000000001ff69d28        0x3 C:\Users\cmshe\AppData\Local\Temp\cwsl_A_sample.elf.eOOQKS.ltrans2.ltrans.o
 *fill*         0x000000001ff69d2b        0x1 
 .sdata.s7_string
                0x000000001ff69d2c        0x3 C:\Users\cmshe\AppData\Local\Temp\cwsl_A_sample.elf.eOOQKS.ltrans2.ltrans.o
 *fill*         0x000000001ff69d2f        0x1 
 .sdata.s8_string
                0x000000001ff69d30        0x3 C:\Users\cmshe\AppData\Local\Temp\cwsl_A_sample.elf.eOOQKS.ltrans2.ltrans.o
 *fill*         0x000000001ff69d33        0x1 
 .sdata.s9_string
                0x000000001ff69d34        0x3 C:\Users\cmshe\AppData\Local\Temp\cwsl_A_sample.elf.eOOQKS.ltrans2.ltrans.o
 *fill*         0x000000001ff69d37        0x1 
 .sdata.sp_string
                0x000000001ff69d38        0x3 C:\Users\cmshe\AppData\Local\Temp\cwsl_A_sample.elf.eOOQKS.ltrans2.ltrans.o
 *fill*         0x000000001ff69d3b        0x1 
 .sdata.t0_string
                0x000000001ff69d3c        0x3 C:\Users\cmshe\AppData\Local\Temp\cwsl_A_sample.elf.eOOQKS.ltrans2.ltrans.o
 *fill*         0x000000001ff69d3f        0x1 
 .sdata.t1_string
                0x000000001ff69d40        0x3 C:\Users\cmshe\AppData\Local\Temp\cwsl_A_sample.elf.eOOQKS.ltrans2.ltrans.o
 *fill*         0x000000001ff69d43        0x1 
 .sdata.t2_string
                0x000000001ff69d44        0x3 C:\Users\cmshe\AppData\Local\Temp\cwsl_A_sample.elf.eOOQKS.ltrans2.ltrans.o
 *fill*         0x000000001ff69d47        0x1 
 .sdata.t3_string
                0x000000001ff69d48        0x3 C:\Users\cmshe\AppData\Local\Temp\cwsl_A_sample.elf.eOOQKS.ltrans2.ltrans.o
 *fill*         0x000000001ff69d4b        0x1 
 .sdata.t4_string
                0x000000001ff69d4c        0x3 C:\Users\cmshe\AppData\Local\Temp\cwsl_A_sample.elf.eOOQKS.ltrans2.ltrans.o
 *fill*         0x000000001ff69d4f        0x1 
 .sdata.t5_string
                0x000000001ff69d50        0x3 C:\Users\cmshe\AppData\Local\Temp\cwsl_A_sample.elf.eOOQKS.ltrans2.ltrans.o
 *fill*         0x000000001ff69d53        0x1 
 .sdata.t6_string
                0x000000001ff69d54        0x3 C:\Users\cmshe\AppData\Local\Temp\cwsl_A_sample.elf.eOOQKS.ltrans2.ltrans.o
 *fill*         0x000000001ff69d57        0x1 
 .sdata.tp_string
                0x000000001ff69d58        0x3 C:\Users\cmshe\AppData\Local\Temp\cwsl_A_sample.elf.eOOQKS.ltrans2.ltrans.o
 *fill*         0x000000001ff69d5b        0x1 
 .sdata.valid_data
                0x000000001ff69d5c        0x4 C:\Users\cmshe\AppData\Local\Temp\cwsl_A_sample.elf.eOOQKS.ltrans2.ltrans.o
 .sdata.wav_nSamplesPerSec
                0x000000001ff69d60        0x4 C:\Users\cmshe\AppData\Local\Temp\cwsl_A_sample.elf.eOOQKS.ltrans2.ltrans.o
 .sdata.currentHeapEnd.5595
                0x000000001ff69d64        0x4 ../../../libs\libnewlib_port.a(sbrk.o)
 .sdata._impure_ptr
                0x000000001ff69d68        0x4 c:/riscv-nuclei-elf-gcc-9.2.0/gcc_fix_raissrc/bin/../lib/gcc/riscv-nuclei-elf/9.2.0/../../../../riscv-nuclei-elf/lib/rv32imafc/ilp32f\libg_nano.a(lib_a-impure.o)
                0x000000001ff69d68                _impure_ptr
 .sdata2._global_impure_ptr
                0x000000001ff69d6c        0x4 c:/riscv-nuclei-elf-gcc-9.2.0/gcc_fix_raissrc/bin/../lib/gcc/riscv-nuclei-elf/9.2.0/../../../../riscv-nuclei-elf/lib/rv32imafc/ilp32f\libg_nano.a(lib_a-impure.o)
                0x000000001ff69d6c                _global_impure_ptr
 *(.gnu.linkonce.s.*)
                0x000000001ff69d70                . = ALIGN (0x8)
 *(.srodata.cst16)
 *(.srodata.cst8)
 .srodata.cst8  0x000000001ff69d70       0x10 C:\Users\cmshe\AppData\Local\Temp\cwsl_A_sample.elf.eOOQKS.ltrans2.ltrans.o
 *(.srodata.cst4)
 .srodata.cst4  0x000000001ff69d80        0xc C:\Users\cmshe\AppData\Local\Temp\cwsl_A_sample.elf.eOOQKS.ltrans0.ltrans.o
 .srodata.cst4  0x000000001ff69d8c       0x2c C:\Users\cmshe\AppData\Local\Temp\cwsl_A_sample.elf.eOOQKS.ltrans1.ltrans.o
 .srodata.cst4  0x000000001ff69db8        0x4 C:\Users\cmshe\AppData\Local\Temp\cwsl_A_sample.elf.eOOQKS.ltrans2.ltrans.o
                                          0x8 (size before relaxing)
 *(.srodata.cst2)
 *(.srodata .srodata.*)
                0x000000001ff69dbc                . = ALIGN (0x4)
                0x000000001ff69dbc                PROVIDE (_edata = .)
                [!provide]                        PROVIDE (edata = .)
                [!provide]                        PROVIDE (_fbss = .)
                0x000000001ff69dbc                PROVIDE (__bss_start = .)

.bss            0x000000001ff69dbc     0x1f84
 *(.sbss*)
 .sbss.asr_decoder.lto_priv.0
                0x000000001ff69dbc        0x4 C:\Users\cmshe\AppData\Local\Temp\cwsl_A_sample.elf.eOOQKS.ltrans0.ltrans.o
                0x000000001ff69dbc                asr_decoder.lto_priv.0
 .sbss.asrtop_asr_system_create_model_semaphore
                0x000000001ff69dc0        0x4 C:\Users\cmshe\AppData\Local\Temp\cwsl_A_sample.elf.eOOQKS.ltrans0.ltrans.o
                0x000000001ff69dc0                asrtop_asr_system_create_model_semaphore
 .sbss.audio_play_cmd_event_group
                0x000000001ff69dc4        0x4 C:\Users\cmshe\AppData\Local\Temp\cwsl_A_sample.elf.eOOQKS.ltrans0.ltrans.o
                0x000000001ff69dc4                audio_play_cmd_event_group
 .sbss.audio_play_queue
                0x000000001ff69dc8        0x4 C:\Users\cmshe\AppData\Local\Temp\cwsl_A_sample.elf.eOOQKS.ltrans0.ltrans.o
                0x000000001ff69dc8                audio_play_queue
 .sbss.audio_play_state.lto_priv.0
                0x000000001ff69dcc        0x1 C:\Users\cmshe\AppData\Local\Temp\cwsl_A_sample.elf.eOOQKS.ltrans0.ltrans.o
                0x000000001ff69dcc                audio_play_state.lto_priv.0
 *fill*         0x000000001ff69dcd        0x3 
 .sbss.cwsl_app
                0x000000001ff69dd0        0x8 C:\Users\cmshe\AppData\Local\Temp\cwsl_A_sample.elf.eOOQKS.ltrans0.ltrans.o
                0x000000001ff69dd0                cwsl_app
 .sbss.delete_number.3940
                0x000000001ff69dd8        0x1 C:\Users\cmshe\AppData\Local\Temp\cwsl_A_sample.elf.eOOQKS.ltrans0.ltrans.o
 *fill*         0x000000001ff69dd9        0x3 
 .sbss.exit_wakeup_timer
                0x000000001ff69ddc        0x4 C:\Users\cmshe\AppData\Local\Temp\cwsl_A_sample.elf.eOOQKS.ltrans0.ltrans.o
                0x000000001ff69ddc                exit_wakeup_timer
 .sbss.g_reg_status
                0x000000001ff69de0        0x2 C:\Users\cmshe\AppData\Local\Temp\cwsl_A_sample.elf.eOOQKS.ltrans0.ltrans.o
                0x000000001ff69de0                g_reg_status
 *fill*         0x000000001ff69de2        0x2 
 .sbss.global_addr_size.lto_priv.0
                0x000000001ff69de4        0x4 C:\Users\cmshe\AppData\Local\Temp\cwsl_A_sample.elf.eOOQKS.ltrans0.ltrans.o
                0x000000001ff69de4                global_addr_size.lto_priv.0
 .sbss.global_flash_sel.lto_priv.0
                0x000000001ff69de8        0x4 C:\Users\cmshe\AppData\Local\Temp\cwsl_A_sample.elf.eOOQKS.ltrans0.ltrans.o
                0x000000001ff69de8                global_flash_sel.lto_priv.0
 .sbss.invalid_phone_num
                0x000000001ff69dec        0x4 C:\Users\cmshe\AppData\Local\Temp\cwsl_A_sample.elf.eOOQKS.ltrans0.ltrans.o
 .sbss.mailbox_is_busy
                0x000000001ff69df0        0x1 C:\Users\cmshe\AppData\Local\Temp\cwsl_A_sample.elf.eOOQKS.ltrans0.ltrans.o
 *fill*         0x000000001ff69df1        0x3 
 .sbss.nuclear_com_semaphore
                0x000000001ff69df4        0x4 C:\Users\cmshe\AppData\Local\Temp\cwsl_A_sample.elf.eOOQKS.ltrans0.ltrans.o
                0x000000001ff69df4                nuclear_com_semaphore
 .sbss.number_send.3936
                0x000000001ff69df8        0x1 C:\Users\cmshe\AppData\Local\Temp\cwsl_A_sample.elf.eOOQKS.ltrans0.ltrans.o
 *fill*         0x000000001ff69df9        0x3 
 .sbss.pxCurrentTCB
                0x000000001ff69dfc        0x4 C:\Users\cmshe\AppData\Local\Temp\cwsl_A_sample.elf.eOOQKS.ltrans0.ltrans.o
                0x000000001ff69dfc                pxCurrentTCB
 .sbss.pxDelayedTaskList.lto_priv.0
                0x000000001ff69e00        0x4 C:\Users\cmshe\AppData\Local\Temp\cwsl_A_sample.elf.eOOQKS.ltrans0.ltrans.o
                0x000000001ff69e00                pxDelayedTaskList.lto_priv.0
 .sbss.pxOverflowDelayedTaskList.lto_priv.0
                0x000000001ff69e04        0x4 C:\Users\cmshe\AppData\Local\Temp\cwsl_A_sample.elf.eOOQKS.ltrans0.ltrans.o
                0x000000001ff69e04                pxOverflowDelayedTaskList.lto_priv.0
 .sbss.send_count.3938
                0x000000001ff69e08        0x1 C:\Users\cmshe\AppData\Local\Temp\cwsl_A_sample.elf.eOOQKS.ltrans0.ltrans.o
 .sbss.send_flag.3939
                0x000000001ff69e09        0x1 C:\Users\cmshe\AppData\Local\Temp\cwsl_A_sample.elf.eOOQKS.ltrans0.ltrans.o
 *fill*         0x000000001ff69e0a        0x2 
 .sbss.sg_ac_max_silphone_count
                0x000000001ff69e0c        0x4 C:\Users\cmshe\AppData\Local\Temp\cwsl_A_sample.elf.eOOQKS.ltrans0.ltrans.o
 .sbss.sg_allocate_block_size_.lto_priv.0
                0x000000001ff69e10        0x2 C:\Users\cmshe\AppData\Local\Temp\cwsl_A_sample.elf.eOOQKS.ltrans0.ltrans.o
                0x000000001ff69e10                sg_allocate_block_size_.lto_priv.0
 *fill*         0x000000001ff69e12        0x2 
 .sbss.sg_allocated_.lto_priv.0
                0x000000001ff69e14        0x4 C:\Users\cmshe\AppData\Local\Temp\cwsl_A_sample.elf.eOOQKS.ltrans0.ltrans.o
                0x000000001ff69e14                sg_allocated_.lto_priv.0
 .sbss.sg_allocated_curidx.lto_priv.0
                0x000000001ff69e18        0x4 C:\Users\cmshe\AppData\Local\Temp\cwsl_A_sample.elf.eOOQKS.ltrans0.ltrans.o
                0x000000001ff69e18                sg_allocated_curidx.lto_priv.0
 .sbss.sg_allocated_size.lto_priv.0
                0x000000001ff69e1c        0x4 C:\Users\cmshe\AppData\Local\Temp\cwsl_A_sample.elf.eOOQKS.ltrans0.ltrans.o
                0x000000001ff69e1c                sg_allocated_size.lto_priv.0
 .sbss.sg_arcs.lto_priv.0
                0x000000001ff69e20        0x8 C:\Users\cmshe\AppData\Local\Temp\cwsl_A_sample.elf.eOOQKS.ltrans0.ltrans.o
                0x000000001ff69e20                sg_arcs.lto_priv.0
 .sbss.sg_arcs_size.lto_priv.0
                0x000000001ff69e28        0x4 C:\Users\cmshe\AppData\Local\Temp\cwsl_A_sample.elf.eOOQKS.ltrans0.ltrans.o
                0x000000001ff69e28                sg_arcs_size.lto_priv.0
 .sbss.sg_asr_len.lto_priv.0
                0x000000001ff69e2c        0x2 C:\Users\cmshe\AppData\Local\Temp\cwsl_A_sample.elf.eOOQKS.ltrans0.ltrans.o
                0x000000001ff69e2c                sg_asr_len.lto_priv.0
 .sbss.sg_asr_s.lto_priv.0
                0x000000001ff69e2e        0x2 C:\Users\cmshe\AppData\Local\Temp\cwsl_A_sample.elf.eOOQKS.ltrans0.ltrans.o
                0x000000001ff69e2e                sg_asr_s.lto_priv.0
 .sbss.sg_cur_arc_ptr
                0x000000001ff69e30        0x4 C:\Users\cmshe\AppData\Local\Temp\cwsl_A_sample.elf.eOOQKS.ltrans0.ltrans.o
 .sbss.sg_cur_confidence.lto_priv.0
                0x000000001ff69e34        0x2 C:\Users\cmshe\AppData\Local\Temp\cwsl_A_sample.elf.eOOQKS.ltrans0.ltrans.o
                0x000000001ff69e34                sg_cur_confidence.lto_priv.0
 .sbss.sg_cur_end_idx
                0x000000001ff69e36        0x2 C:\Users\cmshe\AppData\Local\Temp\cwsl_A_sample.elf.eOOQKS.ltrans0.ltrans.o
 .sbss.sg_cur_fst_ptr_olabel
                0x000000001ff69e38        0x4 C:\Users\cmshe\AppData\Local\Temp\cwsl_A_sample.elf.eOOQKS.ltrans0.ltrans.o
 .sbss.sg_cur_max_score.lto_priv.0
                0x000000001ff69e3c        0x2 C:\Users\cmshe\AppData\Local\Temp\cwsl_A_sample.elf.eOOQKS.ltrans0.ltrans.o
                0x000000001ff69e3c                sg_cur_max_score.lto_priv.0
 *fill*         0x000000001ff69e3e        0x2 
 .sbss.sg_cur_psilphones_ptr
                0x000000001ff69e40        0x4 C:\Users\cmshe\AppData\Local\Temp\cwsl_A_sample.elf.eOOQKS.ltrans0.ltrans.o
 .sbss.sg_cur_psilphones_size
                0x000000001ff69e44        0x4 C:\Users\cmshe\AppData\Local\Temp\cwsl_A_sample.elf.eOOQKS.ltrans0.ltrans.o
 .sbss.sg_cur_states_ptr
                0x000000001ff69e48        0x4 C:\Users\cmshe\AppData\Local\Temp\cwsl_A_sample.elf.eOOQKS.ltrans0.ltrans.o
 .sbss.sg_cur_word_ptr
                0x000000001ff69e4c        0x4 C:\Users\cmshe\AppData\Local\Temp\cwsl_A_sample.elf.eOOQKS.ltrans0.ltrans.o
 .sbss.sg_cur_word_ptr_idx
                0x000000001ff69e50        0x4 C:\Users\cmshe\AppData\Local\Temp\cwsl_A_sample.elf.eOOQKS.ltrans0.ltrans.o
 .sbss.sg_cur_word_size
                0x000000001ff69e54        0x2 C:\Users\cmshe\AppData\Local\Temp\cwsl_A_sample.elf.eOOQKS.ltrans0.ltrans.o
 *fill*         0x000000001ff69e56        0x2 
 .sbss.sg_cur_words_
                0x000000001ff69e58        0x4 C:\Users\cmshe\AppData\Local\Temp\cwsl_A_sample.elf.eOOQKS.ltrans0.ltrans.o
 .sbss.sg_curfst_idx.lto_priv.0
                0x000000001ff69e5c        0x4 C:\Users\cmshe\AppData\Local\Temp\cwsl_A_sample.elf.eOOQKS.ltrans0.ltrans.o
                0x000000001ff69e5c                sg_curfst_idx.lto_priv.0
 .sbss.sg_cwsl_base_olabel.lto_priv.0
                0x000000001ff69e60        0x2 C:\Users\cmshe\AppData\Local\Temp\cwsl_A_sample.elf.eOOQKS.ltrans0.ltrans.o
                0x000000001ff69e60                sg_cwsl_base_olabel.lto_priv.0
 .sbss.sg_cwsl_base_state.lto_priv.0
                0x000000001ff69e62        0x2 C:\Users\cmshe\AppData\Local\Temp\cwsl_A_sample.elf.eOOQKS.ltrans0.ltrans.o
                0x000000001ff69e62                sg_cwsl_base_state.lto_priv.0
 .sbss.sg_cwsl_req_stop.lto_priv.0
                0x000000001ff69e64        0x1 C:\Users\cmshe\AppData\Local\Temp\cwsl_A_sample.elf.eOOQKS.ltrans0.ltrans.o
                0x000000001ff69e64                sg_cwsl_req_stop.lto_priv.0
 *fill*         0x000000001ff69e65        0x1 
 .sbss.sg_cwslreg_info_num
                0x000000001ff69e66        0x2 C:\Users\cmshe\AppData\Local\Temp\cwsl_A_sample.elf.eOOQKS.ltrans0.ltrans.o
 .sbss.sg_cwslvoice_en.lto_priv.0
                0x000000001ff69e68        0x1 C:\Users\cmshe\AppData\Local\Temp\cwsl_A_sample.elf.eOOQKS.ltrans0.ltrans.o
                0x000000001ff69e68                sg_cwslvoice_en.lto_priv.0
 *fill*         0x000000001ff69e69        0x3 
 .sbss.sg_cwslword
                0x000000001ff69e6c        0x4 C:\Users\cmshe\AppData\Local\Temp\cwsl_A_sample.elf.eOOQKS.ltrans0.ltrans.o
 .sbss.sg_cwslword_cmdstr
                0x000000001ff69e70        0x4 C:\Users\cmshe\AppData\Local\Temp\cwsl_A_sample.elf.eOOQKS.ltrans0.ltrans.o
 .sbss.sg_cwslword_cmdstr_bufnum
                0x000000001ff69e74        0x2 C:\Users\cmshe\AppData\Local\Temp\cwsl_A_sample.elf.eOOQKS.ltrans0.ltrans.o
 .sbss.sg_cwslword_cmdstr_num
                0x000000001ff69e76        0x2 C:\Users\cmshe\AppData\Local\Temp\cwsl_A_sample.elf.eOOQKS.ltrans0.ltrans.o
 .sbss.sg_cwslword_num
                0x000000001ff69e78        0x2 C:\Users\cmshe\AppData\Local\Temp\cwsl_A_sample.elf.eOOQKS.ltrans0.ltrans.o
 *fill*         0x000000001ff69e7a        0x2 
 .sbss.sg_cwslword_path
                0x000000001ff69e7c        0x4 C:\Users\cmshe\AppData\Local\Temp\cwsl_A_sample.elf.eOOQKS.ltrans0.ltrans.o
 .sbss.sg_cwslword_path_bufnum
                0x000000001ff69e80        0x2 C:\Users\cmshe\AppData\Local\Temp\cwsl_A_sample.elf.eOOQKS.ltrans0.ltrans.o
 .sbss.sg_cwslword_path_num
                0x000000001ff69e82        0x2 C:\Users\cmshe\AppData\Local\Temp\cwsl_A_sample.elf.eOOQKS.ltrans0.ltrans.o
 .sbss.sg_final_arcpath
                0x000000001ff69e84        0x4 C:\Users\cmshe\AppData\Local\Temp\cwsl_A_sample.elf.eOOQKS.ltrans0.ltrans.o
 .sbss.sg_final_arcpath_bufnum
                0x000000001ff69e88        0x2 C:\Users\cmshe\AppData\Local\Temp\cwsl_A_sample.elf.eOOQKS.ltrans0.ltrans.o
 .sbss.sg_final_arcpath_num
                0x000000001ff69e8a        0x2 C:\Users\cmshe\AppData\Local\Temp\cwsl_A_sample.elf.eOOQKS.ltrans0.ltrans.o
 .sbss.sg_final_path
                0x000000001ff69e8c        0x4 C:\Users\cmshe\AppData\Local\Temp\cwsl_A_sample.elf.eOOQKS.ltrans0.ltrans.o
 .sbss.sg_final_path_bufnum
                0x000000001ff69e90        0x2 C:\Users\cmshe\AppData\Local\Temp\cwsl_A_sample.elf.eOOQKS.ltrans0.ltrans.o
 .sbss.sg_final_path_idx
                0x000000001ff69e92        0x2 C:\Users\cmshe\AppData\Local\Temp\cwsl_A_sample.elf.eOOQKS.ltrans0.ltrans.o
 .sbss.sg_good_phone_vld_th
                0x000000001ff69e94        0x4 C:\Users\cmshe\AppData\Local\Temp\cwsl_A_sample.elf.eOOQKS.ltrans0.ltrans.o
 .sbss.sg_ignore_flag.lto_priv.0
                0x000000001ff69e98        0x1 C:\Users\cmshe\AppData\Local\Temp\cwsl_A_sample.elf.eOOQKS.ltrans0.ltrans.o
                0x000000001ff69e98                sg_ignore_flag.lto_priv.0
 *fill*         0x000000001ff69e99        0x3 
 .sbss.sg_index_buf
                0x000000001ff69e9c        0x4 C:\Users\cmshe\AppData\Local\Temp\cwsl_A_sample.elf.eOOQKS.ltrans0.ltrans.o
 .sbss.sg_maxlimit_phone_score
                0x000000001ff69ea0        0x4 C:\Users\cmshe\AppData\Local\Temp\cwsl_A_sample.elf.eOOQKS.ltrans0.ltrans.o
 .sbss.sg_minlimit_phone_score
                0x000000001ff69ea4        0x4 C:\Users\cmshe\AppData\Local\Temp\cwsl_A_sample.elf.eOOQKS.ltrans0.ltrans.o
 .sbss.sg_newtab
                0x000000001ff69ea8        0x4 C:\Users\cmshe\AppData\Local\Temp\cwsl_A_sample.elf.eOOQKS.ltrans0.ltrans.o
 .sbss.sg_newtab_count
                0x000000001ff69eac        0x2 C:\Users\cmshe\AppData\Local\Temp\cwsl_A_sample.elf.eOOQKS.ltrans0.ltrans.o
 *fill*         0x000000001ff69eae        0x2 
 .sbss.sg_oldpdf2srcpdf_map
                0x000000001ff69eb0        0x4 C:\Users\cmshe\AppData\Local\Temp\cwsl_A_sample.elf.eOOQKS.ltrans0.ltrans.o
 .sbss.sg_oldtab
                0x000000001ff69eb4        0x4 C:\Users\cmshe\AppData\Local\Temp\cwsl_A_sample.elf.eOOQKS.ltrans0.ltrans.o
 .sbss.sg_oldtab_count
                0x000000001ff69eb8        0x2 C:\Users\cmshe\AppData\Local\Temp\cwsl_A_sample.elf.eOOQKS.ltrans0.ltrans.o
 .sbss.sg_proc_frm
                0x000000001ff69eba        0x2 C:\Users\cmshe\AppData\Local\Temp\cwsl_A_sample.elf.eOOQKS.ltrans0.ltrans.o
 .sbss.sg_req_change_model.lto_priv.0
                0x000000001ff69ebc        0x1 C:\Users\cmshe\AppData\Local\Temp\cwsl_A_sample.elf.eOOQKS.ltrans0.ltrans.o
                0x000000001ff69ebc                sg_req_change_model.lto_priv.0
 *fill*         0x000000001ff69ebd        0x1 
 .sbss.sg_result_idx.lto_priv.0
                0x000000001ff69ebe        0x2 C:\Users\cmshe\AppData\Local\Temp\cwsl_A_sample.elf.eOOQKS.ltrans0.ltrans.o
                0x000000001ff69ebe                sg_result_idx.lto_priv.0
 .sbss.sg_rtl   0x000000001ff69ec0        0x4 C:\Users\cmshe\AppData\Local\Temp\cwsl_A_sample.elf.eOOQKS.ltrans0.ltrans.o
 .sbss.sg_rtl_bufnum
                0x000000001ff69ec4        0x2 C:\Users\cmshe\AppData\Local\Temp\cwsl_A_sample.elf.eOOQKS.ltrans0.ltrans.o
 .sbss.sg_rtl_num.lto_priv.0
                0x000000001ff69ec6        0x2 C:\Users\cmshe\AppData\Local\Temp\cwsl_A_sample.elf.eOOQKS.ltrans0.ltrans.o
                0x000000001ff69ec6                sg_rtl_num.lto_priv.0
 .sbss.sg_src_silphone_num
                0x000000001ff69ec8        0x2 C:\Users\cmshe\AppData\Local\Temp\cwsl_A_sample.elf.eOOQKS.ltrans0.ltrans.o
 *fill*         0x000000001ff69eca        0x2 
 .sbss.sg_states_arr_.lto_priv.0
                0x000000001ff69ecc        0x8 C:\Users\cmshe\AppData\Local\Temp\cwsl_A_sample.elf.eOOQKS.ltrans0.ltrans.o
                0x000000001ff69ecc                sg_states_arr_.lto_priv.0
 .sbss.sg_tpl_path_idx
                0x000000001ff69ed4        0x2 C:\Users\cmshe\AppData\Local\Temp\cwsl_A_sample.elf.eOOQKS.ltrans0.ltrans.o
 .sbss.sg_voice_valid_frm
                0x000000001ff69ed6        0x2 C:\Users\cmshe\AppData\Local\Temp\cwsl_A_sample.elf.eOOQKS.ltrans0.ltrans.o
 .sbss.sg_wakeup_cfd.lto_priv.0
                0x000000001ff69ed8        0x2 C:\Users\cmshe\AppData\Local\Temp\cwsl_A_sample.elf.eOOQKS.ltrans0.ltrans.o
                0x000000001ff69ed8                sg_wakeup_cfd.lto_priv.0
 .sbss.sg_wakeup_oneshot_able
                0x000000001ff69eda        0x1 C:\Users\cmshe\AppData\Local\Temp\cwsl_A_sample.elf.eOOQKS.ltrans0.ltrans.o
                0x000000001ff69eda                sg_wakeup_oneshot_able
 *fill*         0x000000001ff69edb        0x1 
 .sbss.sg_wi_result
                0x000000001ff69edc        0x4 C:\Users\cmshe\AppData\Local\Temp\cwsl_A_sample.elf.eOOQKS.ltrans0.ltrans.o
 .sbss.sg_wi_result_bufnum
                0x000000001ff69ee0        0x2 C:\Users\cmshe\AppData\Local\Temp\cwsl_A_sample.elf.eOOQKS.ltrans0.ltrans.o
 .sbss.sg_wi_result_num.lto_priv.0
                0x000000001ff69ee2        0x2 C:\Users\cmshe\AppData\Local\Temp\cwsl_A_sample.elf.eOOQKS.ltrans0.ltrans.o
                0x000000001ff69ee2                sg_wi_result_num.lto_priv.0
 .sbss.spic_cmd_quad_flag
                0x000000001ff69ee4        0x1 C:\Users\cmshe\AppData\Local\Temp\cwsl_A_sample.elf.eOOQKS.ltrans0.ltrans.o
                0x000000001ff69ee4                spic_cmd_quad_flag
 *fill*         0x000000001ff69ee5        0x3 
 .sbss.sys_err_flag
                0x000000001ff69ee8        0x4 C:\Users\cmshe\AppData\Local\Temp\cwsl_A_sample.elf.eOOQKS.ltrans0.ltrans.o
                0x000000001ff69ee8                sys_err_flag
 .sbss.sys_manage_data
                0x000000001ff69eec        0x6 C:\Users\cmshe\AppData\Local\Temp\cwsl_A_sample.elf.eOOQKS.ltrans0.ltrans.o
                0x000000001ff69eec                sys_manage_data
 *fill*         0x000000001ff69ef2        0x2 
 .sbss.uxCurrentNumberOfTasks.lto_priv.0
                0x000000001ff69ef4        0x4 C:\Users\cmshe\AppData\Local\Temp\cwsl_A_sample.elf.eOOQKS.ltrans0.ltrans.o
                0x000000001ff69ef4                uxCurrentNumberOfTasks.lto_priv.0
 .sbss.uxTaskNumber
                0x000000001ff69ef8        0x4 C:\Users\cmshe\AppData\Local\Temp\cwsl_A_sample.elf.eOOQKS.ltrans0.ltrans.o
 .sbss.uxTopReadyPriority.lto_priv.0
                0x000000001ff69efc        0x4 C:\Users\cmshe\AppData\Local\Temp\cwsl_A_sample.elf.eOOQKS.ltrans0.ltrans.o
                0x000000001ff69efc                uxTopReadyPriority.lto_priv.0
 .sbss.xSchedulerRunning.lto_priv.0
                0x000000001ff69f00        0x4 C:\Users\cmshe\AppData\Local\Temp\cwsl_A_sample.elf.eOOQKS.ltrans0.ltrans.o
                0x000000001ff69f00                xSchedulerRunning.lto_priv.0
 .sbss.xTimerQueue.lto_priv.0
                0x000000001ff69f04        0x4 C:\Users\cmshe\AppData\Local\Temp\cwsl_A_sample.elf.eOOQKS.ltrans0.ltrans.o
                0x000000001ff69f04                xTimerQueue.lto_priv.0
 .sbss.DECODER_WaitDeal_xQueuemsg
                0x000000001ff69f08        0x4 C:\Users\cmshe\AppData\Local\Temp\cwsl_A_sample.elf.eOOQKS.ltrans1.ltrans.o
 .sbss.DECODER_xQueuemsg
                0x000000001ff69f0c        0x4 C:\Users\cmshe\AppData\Local\Temp\cwsl_A_sample.elf.eOOQKS.ltrans1.ltrans.o
 .sbss.LDO_trim_value_crc
                0x000000001ff69f10        0x1 C:\Users\cmshe\AppData\Local\Temp\cwsl_A_sample.elf.eOOQKS.ltrans1.ltrans.o
 *fill*         0x000000001ff69f11        0x3 
 .sbss.UART_CLK
                0x000000001ff69f14        0x4 C:\Users\cmshe\AppData\Local\Temp\cwsl_A_sample.elf.eOOQKS.ltrans1.ltrans.o
 .sbss.WakeupMutex
                0x000000001ff69f18        0x4 C:\Users\cmshe\AppData\Local\Temp\cwsl_A_sample.elf.eOOQKS.ltrans1.ltrans.o
 .sbss.asr_decoder_handle
                0x000000001ff69f1c        0x4 C:\Users\cmshe\AppData\Local\Temp\cwsl_A_sample.elf.eOOQKS.ltrans1.ltrans.o
 .sbss.asrtop_asr_system_continue_semaphore
                0x000000001ff69f20        0x4 C:\Users\cmshe\AppData\Local\Temp\cwsl_A_sample.elf.eOOQKS.ltrans1.ltrans.o
 .sbss.asrtop_asr_system_pause_semaphore
                0x000000001ff69f24        0x4 C:\Users\cmshe\AppData\Local\Temp\cwsl_A_sample.elf.eOOQKS.ltrans1.ltrans.o
 .sbss.audio_play_task_handle
                0x000000001ff69f28        0x4 C:\Users\cmshe\AppData\Local\Temp\cwsl_A_sample.elf.eOOQKS.ltrans1.ltrans.o
 .sbss.boot_sync_bnpu
                0x000000001ff69f2c        0x4 C:\Users\cmshe\AppData\Local\Temp\cwsl_A_sample.elf.eOOQKS.ltrans1.ltrans.o
 .sbss.boot_sync_host
                0x000000001ff69f30        0x4 C:\Users\cmshe\AppData\Local\Temp\cwsl_A_sample.elf.eOOQKS.ltrans1.ltrans.o
 .sbss.ci_flash_data_info_init_flag
                0x000000001ff69f34        0x1 C:\Users\cmshe\AppData\Local\Temp\cwsl_A_sample.elf.eOOQKS.ltrans1.ltrans.o
                0x000000001ff69f34                ci_flash_data_info_init_flag
 *fill*         0x000000001ff69f35        0x3 
 .sbss.cinv_hotid_m.lto_priv.0
                0x000000001ff69f38        0x4 C:\Users\cmshe\AppData\Local\Temp\cwsl_A_sample.elf.eOOQKS.ltrans1.ltrans.o
                0x000000001ff69f38                cinv_hotid_m.lto_priv.0
 .sbss.cinv_mutex
                0x000000001ff69f3c        0x4 C:\Users\cmshe\AppData\Local\Temp\cwsl_A_sample.elf.eOOQKS.ltrans1.ltrans.o
 .sbss.cnt      0x000000001ff69f40        0x4 C:\Users\cmshe\AppData\Local\Temp\cwsl_A_sample.elf.eOOQKS.ltrans1.ltrans.o
 .sbss.data_buf.lto_priv.0
                0x000000001ff69f44        0x4 C:\Users\cmshe\AppData\Local\Temp\cwsl_A_sample.elf.eOOQKS.ltrans1.ltrans.o
                0x000000001ff69f44                data_buf.lto_priv.0
 .sbss.data_buf_queue.lto_priv.0
                0x000000001ff69f48        0x4 C:\Users\cmshe\AppData\Local\Temp\cwsl_A_sample.elf.eOOQKS.ltrans1.ltrans.o
                0x000000001ff69f48                data_buf_queue.lto_priv.0
 .sbss.decoder_clear_done_semaphore
                0x000000001ff69f4c        0x4 C:\Users\cmshe\AppData\Local\Temp\cwsl_A_sample.elf.eOOQKS.ltrans1.ltrans.o
 .sbss.decoder_createmodel_done_flag
                0x000000001ff69f50        0x1 C:\Users\cmshe\AppData\Local\Temp\cwsl_A_sample.elf.eOOQKS.ltrans1.ltrans.o
 .sbss.decoder_manage_is_decodeing
                0x000000001ff69f51        0x1 C:\Users\cmshe\AppData\Local\Temp\cwsl_A_sample.elf.eOOQKS.ltrans1.ltrans.o
 *fill*         0x000000001ff69f52        0x2 
 .sbss.decoder_release_semaphore
                0x000000001ff69f54        0x4 C:\Users\cmshe\AppData\Local\Temp\cwsl_A_sample.elf.eOOQKS.ltrans1.ltrans.o
 .sbss.decoder_switchfst_done_semaphore
                0x000000001ff69f58        0x4 C:\Users\cmshe\AppData\Local\Temp\cwsl_A_sample.elf.eOOQKS.ltrans1.ltrans.o
 .sbss.decoder_task_could_init
                0x000000001ff69f5c        0x1 C:\Users\cmshe\AppData\Local\Temp\cwsl_A_sample.elf.eOOQKS.ltrans1.ltrans.o
 .sbss.decoder_task_vadfe_clear_done_flag
                0x000000001ff69f5d        0x1 C:\Users\cmshe\AppData\Local\Temp\cwsl_A_sample.elf.eOOQKS.ltrans1.ltrans.o
 *fill*         0x000000001ff69f5e        0x2 
 .sbss.dnn_asr_acmodel_addr
                0x000000001ff69f60        0x4 C:\Users\cmshe\AppData\Local\Temp\cwsl_A_sample.elf.eOOQKS.ltrans1.ltrans.o
 .sbss.efuse_writer
                0x000000001ff69f64        0x4 C:\Users\cmshe\AppData\Local\Temp\cwsl_A_sample.elf.eOOQKS.ltrans1.ltrans.o
 .sbss.flash_ctl_xSemaphore
                0x000000001ff69f68        0x4 C:\Users\cmshe\AppData\Local\Temp\cwsl_A_sample.elf.eOOQKS.ltrans1.ltrans.o
 .sbss.flash_req_op_done_event_group
                0x000000001ff69f6c        0x4 C:\Users\cmshe\AppData\Local\Temp\cwsl_A_sample.elf.eOOQKS.ltrans1.ltrans.o
 .sbss.g_decoder_skp_num
                0x000000001ff69f70        0x1 C:\Users\cmshe\AppData\Local\Temp\cwsl_A_sample.elf.eOOQKS.ltrans1.ltrans.o
 .sbss.g_decoder_state
                0x000000001ff69f71        0x1 C:\Users\cmshe\AppData\Local\Temp\cwsl_A_sample.elf.eOOQKS.ltrans1.ltrans.o
 *fill*         0x000000001ff69f72        0x2 
 .sbss.g_dnn_asrhid_nums
                0x000000001ff69f74        0x4 C:\Users\cmshe\AppData\Local\Temp\cwsl_A_sample.elf.eOOQKS.ltrans1.ltrans.o
 .sbss.g_dnn_asrinput_nums
                0x000000001ff69f78        0x4 C:\Users\cmshe\AppData\Local\Temp\cwsl_A_sample.elf.eOOQKS.ltrans1.ltrans.o
 .sbss.g_dnn_asrlayers
                0x000000001ff69f7c        0x4 C:\Users\cmshe\AppData\Local\Temp\cwsl_A_sample.elf.eOOQKS.ltrans1.ltrans.o
 .sbss.g_dnn_asrmodel_size
                0x000000001ff69f80        0x4 C:\Users\cmshe\AppData\Local\Temp\cwsl_A_sample.elf.eOOQKS.ltrans1.ltrans.o
 .sbss.g_dnn_asroutput_allnums
                0x000000001ff69f84        0x4 C:\Users\cmshe\AppData\Local\Temp\cwsl_A_sample.elf.eOOQKS.ltrans1.ltrans.o
 .sbss.g_feb_total_count
                0x000000001ff69f88        0x2 C:\Users\cmshe\AppData\Local\Temp\cwsl_A_sample.elf.eOOQKS.ltrans1.ltrans.o
 *fill*         0x000000001ff69f8a        0x2 
 .sbss.g_flash_base_addr.lto_priv.0
                0x000000001ff69f8c        0x4 C:\Users\cmshe\AppData\Local\Temp\cwsl_A_sample.elf.eOOQKS.ltrans1.ltrans.o
                0x000000001ff69f8c                g_flash_base_addr.lto_priv.0
 .sbss.g_pa_pin_valid_level
                0x000000001ff69f90        0x4 C:\Users\cmshe\AppData\Local\Temp\cwsl_A_sample.elf.eOOQKS.ltrans1.ltrans.o
 .sbss.g_prun_count_max
                0x000000001ff69f94        0x4 C:\Users\cmshe\AppData\Local\Temp\cwsl_A_sample.elf.eOOQKS.ltrans1.ltrans.o
 .sbss.get_play_data_queue.lto_priv.0
                0x000000001ff69f98        0x4 C:\Users\cmshe\AppData\Local\Temp\cwsl_A_sample.elf.eOOQKS.ltrans1.ltrans.o
                0x000000001ff69f98                get_play_data_queue.lto_priv.0
 .sbss.ignore_asr_msg
                0x000000001ff69f9c        0x1 C:\Users\cmshe\AppData\Local\Temp\cwsl_A_sample.elf.eOOQKS.ltrans1.ltrans.o
 .sbss.ignore_exit_wakeup
                0x000000001ff69f9d        0x1 C:\Users\cmshe\AppData\Local\Temp\cwsl_A_sample.elf.eOOQKS.ltrans1.ltrans.o
 .sbss.iis_pad_for_clk_input_flag
                0x000000001ff69f9e        0x1 C:\Users\cmshe\AppData\Local\Temp\cwsl_A_sample.elf.eOOQKS.ltrans1.ltrans.o
 .sbss.is_burn_down
                0x000000001ff69f9f        0x1 C:\Users\cmshe\AppData\Local\Temp\cwsl_A_sample.elf.eOOQKS.ltrans1.ltrans.o
 .sbss.is_check_err
                0x000000001ff69fa0        0x1 C:\Users\cmshe\AppData\Local\Temp\cwsl_A_sample.elf.eOOQKS.ltrans1.ltrans.o
 .sbss.is_dnn_err
                0x000000001ff69fa1        0x1 C:\Users\cmshe\AppData\Local\Temp\cwsl_A_sample.elf.eOOQKS.ltrans1.ltrans.o
 .sbss.is_por_err
                0x000000001ff69fa2        0x1 C:\Users\cmshe\AppData\Local\Temp\cwsl_A_sample.elf.eOOQKS.ltrans1.ltrans.o
 .sbss.is_read_down
                0x000000001ff69fa3        0x1 C:\Users\cmshe\AppData\Local\Temp\cwsl_A_sample.elf.eOOQKS.ltrans1.ltrans.o
 .sbss.last_mode_group_id.5262
                0x000000001ff69fa4        0x1 C:\Users\cmshe\AppData\Local\Temp\cwsl_A_sample.elf.eOOQKS.ltrans1.ltrans.o
 *fill*         0x000000001ff69fa5        0x3 
 .sbss.mailbox_semaphore
                0x000000001ff69fa8        0x4 C:\Users\cmshe\AppData\Local\Temp\cwsl_A_sample.elf.eOOQKS.ltrans1.ltrans.o
 .sbss.max_cmd_string_table_size
                0x000000001ff69fac        0x4 C:\Users\cmshe\AppData\Local\Temp\cwsl_A_sample.elf.eOOQKS.ltrans1.ltrans.o
 .sbss.max_command_number
                0x000000001ff69fb0        0x2 C:\Users\cmshe\AppData\Local\Temp\cwsl_A_sample.elf.eOOQKS.ltrans1.ltrans.o
 .sbss.max_special_word_number
                0x000000001ff69fb2        0x2 C:\Users\cmshe\AppData\Local\Temp\cwsl_A_sample.elf.eOOQKS.ltrans1.ltrans.o
 .sbss.nn_out_callback
                0x000000001ff69fb4        0x4 C:\Users\cmshe\AppData\Local\Temp\cwsl_A_sample.elf.eOOQKS.ltrans1.ltrans.o
 .sbss.nuclear_com_callback_func
                0x000000001ff69fb8        0x4 C:\Users\cmshe\AppData\Local\Temp\cwsl_A_sample.elf.eOOQKS.ltrans1.ltrans.o
 .sbss.pause_data_event.lto_priv.0
                0x000000001ff69fbc        0x4 C:\Users\cmshe\AppData\Local\Temp\cwsl_A_sample.elf.eOOQKS.ltrans1.ltrans.o
                0x000000001ff69fbc                pause_data_event.lto_priv.0
 .sbss.print_minactive.7386
                0x000000001ff69fc0        0x4 C:\Users\cmshe\AppData\Local\Temp\cwsl_A_sample.elf.eOOQKS.ltrans1.ltrans.o
 .sbss.sg_asrbest_cmd_count
                0x000000001ff69fc4        0x4 C:\Users\cmshe\AppData\Local\Temp\cwsl_A_sample.elf.eOOQKS.ltrans1.ltrans.o
 .sbss.sg_asrbest_cmd_word
                0x000000001ff69fc8        0x4 C:\Users\cmshe\AppData\Local\Temp\cwsl_A_sample.elf.eOOQKS.ltrans1.ltrans.o
 .sbss.sg_asrbest_cmd_word_confidence
                0x000000001ff69fcc        0x2 C:\Users\cmshe\AppData\Local\Temp\cwsl_A_sample.elf.eOOQKS.ltrans1.ltrans.o
 .sbss.sg_asrbest_cmd_word_curframes
                0x000000001ff69fce        0x2 C:\Users\cmshe\AppData\Local\Temp\cwsl_A_sample.elf.eOOQKS.ltrans1.ltrans.o
 .sbss.sg_cmp_twice_en
                0x000000001ff69fd0        0x1 C:\Users\cmshe\AppData\Local\Temp\cwsl_A_sample.elf.eOOQKS.ltrans1.ltrans.o
 *fill*         0x000000001ff69fd1        0x3 
 .sbss.sg_cmp_twice_take_turns
                0x000000001ff69fd4        0x4 C:\Users\cmshe\AppData\Local\Temp\cwsl_A_sample.elf.eOOQKS.ltrans1.ltrans.o
 .sbss.sg_confidence_mode
                0x000000001ff69fd8        0x1 C:\Users\cmshe\AppData\Local\Temp\cwsl_A_sample.elf.eOOQKS.ltrans1.ltrans.o
 *fill*         0x000000001ff69fd9        0x3 
 .sbss.sg_cur_cmp_twice_cmd_word
                0x000000001ff69fdc        0x4 C:\Users\cmshe\AppData\Local\Temp\cwsl_A_sample.elf.eOOQKS.ltrans1.ltrans.o
 .sbss.sg_cur_cmp_twice_confidecnce
                0x000000001ff69fe0        0x2 C:\Users\cmshe\AppData\Local\Temp\cwsl_A_sample.elf.eOOQKS.ltrans1.ltrans.o
 *fill*         0x000000001ff69fe2        0x2 
 .sbss.sg_cur_decoder_addr
                0x000000001ff69fe4        0x4 C:\Users\cmshe\AppData\Local\Temp\cwsl_A_sample.elf.eOOQKS.ltrans1.ltrans.o
 .sbss.sg_cur_end_frms
                0x000000001ff69fe8        0x4 C:\Users\cmshe\AppData\Local\Temp\cwsl_A_sample.elf.eOOQKS.ltrans1.ltrans.o
 .sbss.sg_cur_fst_idx
                0x000000001ff69fec        0x1 C:\Users\cmshe\AppData\Local\Temp\cwsl_A_sample.elf.eOOQKS.ltrans1.ltrans.o
 *fill*         0x000000001ff69fed        0x3 
 .sbss.sg_cur_start_frms
                0x000000001ff69ff0        0x4 C:\Users\cmshe\AppData\Local\Temp\cwsl_A_sample.elf.eOOQKS.ltrans1.ltrans.o
 .sbss.sg_decoded_slice_nums
                0x000000001ff69ff4        0x2 C:\Users\cmshe\AppData\Local\Temp\cwsl_A_sample.elf.eOOQKS.ltrans1.ltrans.o
 *fill*         0x000000001ff69ff6        0x2 
 .sbss.sg_decoder_task_timeout_count
                0x000000001ff69ff8        0x4 C:\Users\cmshe\AppData\Local\Temp\cwsl_A_sample.elf.eOOQKS.ltrans1.ltrans.o
 .sbss.sg_decoding_frames
                0x000000001ff69ffc        0x2 C:\Users\cmshe\AppData\Local\Temp\cwsl_A_sample.elf.eOOQKS.ltrans1.ltrans.o
 .sbss.sg_decoding_hasresult_flag
                0x000000001ff69ffe        0x1 C:\Users\cmshe\AppData\Local\Temp\cwsl_A_sample.elf.eOOQKS.ltrans1.ltrans.o
 *fill*         0x000000001ff69fff        0x1 
 .sbss.sg_dnn_clear_done_flag
                0x000000001ff6a000        0x4 C:\Users\cmshe\AppData\Local\Temp\cwsl_A_sample.elf.eOOQKS.ltrans1.ltrans.o
 .sbss.sg_last_cmp_twice_cmd_word
                0x000000001ff6a004        0x4 C:\Users\cmshe\AppData\Local\Temp\cwsl_A_sample.elf.eOOQKS.ltrans1.ltrans.o
 .sbss.sg_last_cmp_twice_confidecnce
                0x000000001ff6a008        0x2 C:\Users\cmshe\AppData\Local\Temp\cwsl_A_sample.elf.eOOQKS.ltrans1.ltrans.o
 *fill*         0x000000001ff6a00a        0x2 
 .sbss.sg_last_tick_t
                0x000000001ff6a00c        0x4 C:\Users\cmshe\AppData\Local\Temp\cwsl_A_sample.elf.eOOQKS.ltrans1.ltrans.o
 .sbss.sg_last_valid_cmd_cfd
                0x000000001ff6a010        0x4 C:\Users\cmshe\AppData\Local\Temp\cwsl_A_sample.elf.eOOQKS.ltrans1.ltrans.o
 .sbss.sg_last_valid_cmd_word
                0x000000001ff6a014        0x4 C:\Users\cmshe\AppData\Local\Temp\cwsl_A_sample.elf.eOOQKS.ltrans1.ltrans.o
 .sbss.sg_max_single_confidecnce
                0x000000001ff6a018        0x2 C:\Users\cmshe\AppData\Local\Temp\cwsl_A_sample.elf.eOOQKS.ltrans1.ltrans.o
 *fill*         0x000000001ff6a01a        0x2 
 .sbss.sg_max_twice_time
                0x000000001ff6a01c        0x4 C:\Users\cmshe\AppData\Local\Temp\cwsl_A_sample.elf.eOOQKS.ltrans1.ltrans.o
 .sbss.sg_min_single_confidecnce
                0x000000001ff6a020        0x2 C:\Users\cmshe\AppData\Local\Temp\cwsl_A_sample.elf.eOOQKS.ltrans1.ltrans.o
 .sbss.sg_min_twice_sum_confidecnce
                0x000000001ff6a022        0x2 C:\Users\cmshe\AppData\Local\Temp\cwsl_A_sample.elf.eOOQKS.ltrans1.ltrans.o
 .sbss.sg_none_voice_probability_frms
                0x000000001ff6a024        0x4 C:\Users\cmshe\AppData\Local\Temp\cwsl_A_sample.elf.eOOQKS.ltrans1.ltrans.o
 .sbss.sg_prev_cmd_id_tmp
                0x000000001ff6a028        0x4 C:\Users\cmshe\AppData\Local\Temp\cwsl_A_sample.elf.eOOQKS.ltrans1.ltrans.o
 .sbss.sg_prev_group_id_tmp
                0x000000001ff6a02c        0x2 C:\Users\cmshe\AppData\Local\Temp\cwsl_A_sample.elf.eOOQKS.ltrans1.ltrans.o
 .sbss.sg_prev_wordtype_tmp
                0x000000001ff6a02e        0x1 C:\Users\cmshe\AppData\Local\Temp\cwsl_A_sample.elf.eOOQKS.ltrans1.ltrans.o
 *fill*         0x000000001ff6a02f        0x1 
 .sbss.sg_priors
                0x000000001ff6a030        0x4 C:\Users\cmshe\AppData\Local\Temp\cwsl_A_sample.elf.eOOQKS.ltrans1.ltrans.o
 .sbss.sg_priors_num
                0x000000001ff6a034        0x2 C:\Users\cmshe\AppData\Local\Temp\cwsl_A_sample.elf.eOOQKS.ltrans1.ltrans.o
 .sbss.sg_send_pre_cmd
                0x000000001ff6a036        0x1 C:\Users\cmshe\AppData\Local\Temp\cwsl_A_sample.elf.eOOQKS.ltrans1.ltrans.o
 *fill*         0x000000001ff6a037        0x1 
 .sbss.sg_stop_decode_count
                0x000000001ff6a038        0x4 C:\Users\cmshe\AppData\Local\Temp\cwsl_A_sample.elf.eOOQKS.ltrans1.ltrans.o
 .sbss.sg_stop_decode_count_cpu
                0x000000001ff6a03c        0x4 C:\Users\cmshe\AppData\Local\Temp\cwsl_A_sample.elf.eOOQKS.ltrans1.ltrans.o
 .sbss.sg_vadfe_clear_done_flag
                0x000000001ff6a040        0x4 C:\Users\cmshe\AppData\Local\Temp\cwsl_A_sample.elf.eOOQKS.ltrans1.ltrans.o
 .sbss.sg_valid_cmd_word_count
                0x000000001ff6a044        0x4 C:\Users\cmshe\AppData\Local\Temp\cwsl_A_sample.elf.eOOQKS.ltrans1.ltrans.o
 .sbss.sg_voice_sil_flag_idx
                0x000000001ff6a048        0x2 C:\Users\cmshe\AppData\Local\Temp\cwsl_A_sample.elf.eOOQKS.ltrans1.ltrans.o
 *fill*         0x000000001ff6a04a        0x2 
 .sbss.sys_msg_queue
                0x000000001ff6a04c        0x4 C:\Users\cmshe\AppData\Local\Temp\cwsl_A_sample.elf.eOOQKS.ltrans1.ltrans.o
 .sbss.trans_id
                0x000000001ff6a050        0x4 C:\Users\cmshe\AppData\Local\Temp\cwsl_A_sample.elf.eOOQKS.ltrans1.ltrans.o
 .sbss.uxSchedulerSuspended.lto_priv.0
                0x000000001ff6a054        0x4 C:\Users\cmshe\AppData\Local\Temp\cwsl_A_sample.elf.eOOQKS.ltrans1.ltrans.o
                0x000000001ff6a054                uxSchedulerSuspended.lto_priv.0
 .sbss.xFreeBytesRemaining.lto_priv.0
                0x000000001ff6a058        0x4 C:\Users\cmshe\AppData\Local\Temp\cwsl_A_sample.elf.eOOQKS.ltrans1.ltrans.o
                0x000000001ff6a058                xFreeBytesRemaining.lto_priv.0
 .sbss.xIdleTaskHandle
                0x000000001ff6a05c        0x4 C:\Users\cmshe\AppData\Local\Temp\cwsl_A_sample.elf.eOOQKS.ltrans1.ltrans.o
 .sbss.xMinimumEverFreeBytesRemaining.lto_priv.0
                0x000000001ff6a060        0x4 C:\Users\cmshe\AppData\Local\Temp\cwsl_A_sample.elf.eOOQKS.ltrans1.ltrans.o
                0x000000001ff6a060                xMinimumEverFreeBytesRemaining.lto_priv.0
 .sbss.xNextTaskUnblockTime.lto_priv.0
                0x000000001ff6a064        0x4 C:\Users\cmshe\AppData\Local\Temp\cwsl_A_sample.elf.eOOQKS.ltrans1.ltrans.o
                0x000000001ff6a064                xNextTaskUnblockTime.lto_priv.0
 .sbss.xTickCount.lto_priv.0
                0x000000001ff6a068        0x4 C:\Users\cmshe\AppData\Local\Temp\cwsl_A_sample.elf.eOOQKS.ltrans1.ltrans.o
                0x000000001ff6a068                xTickCount.lto_priv.0
 .sbss.xTimerTaskHandle
                0x000000001ff6a06c        0x4 C:\Users\cmshe\AppData\Local\Temp\cwsl_A_sample.elf.eOOQKS.ltrans1.ltrans.o
 .sbss.xYieldPending.lto_priv.0
                0x000000001ff6a070        0x4 C:\Users\cmshe\AppData\Local\Temp\cwsl_A_sample.elf.eOOQKS.ltrans1.ltrans.o
                0x000000001ff6a070                xYieldPending.lto_priv.0
 .sbss.Decodeindex
                0x000000001ff6a074        0x2 C:\Users\cmshe\AppData\Local\Temp\cwsl_A_sample.elf.eOOQKS.ltrans2.ltrans.o
 *fill*         0x000000001ff6a076        0x2 
 .sbss.Decodepredsample
                0x000000001ff6a078        0x4 C:\Users\cmshe\AppData\Local\Temp\cwsl_A_sample.elf.eOOQKS.ltrans2.ltrans.o
 .sbss.adpcmBlockAlign
                0x000000001ff6a07c        0x4 C:\Users\cmshe\AppData\Local\Temp\cwsl_A_sample.elf.eOOQKS.ltrans2.ltrans.o
 .sbss.adpcm_head_size
                0x000000001ff6a080        0x4 C:\Users\cmshe\AppData\Local\Temp\cwsl_A_sample.elf.eOOQKS.ltrans2.ltrans.o
 .sbss.audio_decode_offset
                0x000000001ff6a084        0x4 C:\Users\cmshe\AppData\Local\Temp\cwsl_A_sample.elf.eOOQKS.ltrans2.ltrans.o
 .sbss.audio_play_output_size
                0x000000001ff6a088        0x4 C:\Users\cmshe\AppData\Local\Temp\cwsl_A_sample.elf.eOOQKS.ltrans2.ltrans.o
 .sbss.audio_read_offset
                0x000000001ff6a08c        0x4 C:\Users\cmshe\AppData\Local\Temp\cwsl_A_sample.elf.eOOQKS.ltrans2.ltrans.o
 .sbss.bak_data
                0x000000001ff6a090        0x4 C:\Users\cmshe\AppData\Local\Temp\cwsl_A_sample.elf.eOOQKS.ltrans2.ltrans.o
 .sbss.bak_data_fp
                0x000000001ff6a094        0x4 C:\Users\cmshe\AppData\Local\Temp\cwsl_A_sample.elf.eOOQKS.ltrans2.ltrans.o
 .sbss.buf_index.5232
                0x000000001ff6a098        0x1 C:\Users\cmshe\AppData\Local\Temp\cwsl_A_sample.elf.eOOQKS.ltrans2.ltrans.o
 *fill*         0x000000001ff6a099        0x3 
 .sbss.curr_decoder_ops
                0x000000001ff6a09c        0x4 C:\Users\cmshe\AppData\Local\Temp\cwsl_A_sample.elf.eOOQKS.ltrans2.ltrans.o
 .sbss.data_in_buffer
                0x000000001ff6a0a0        0x4 C:\Users\cmshe\AppData\Local\Temp\cwsl_A_sample.elf.eOOQKS.ltrans2.ltrans.o
 .sbss.data_size
                0x000000001ff6a0a4        0x4 C:\Users\cmshe\AppData\Local\Temp\cwsl_A_sample.elf.eOOQKS.ltrans2.ltrans.o
 .sbss.decbuf   0x000000001ff6a0a8        0x4 C:\Users\cmshe\AppData\Local\Temp\cwsl_A_sample.elf.eOOQKS.ltrans2.ltrans.o
 .sbss.decode_frame_count.6504
                0x000000001ff6a0ac        0x4 C:\Users\cmshe\AppData\Local\Temp\cwsl_A_sample.elf.eOOQKS.ltrans2.ltrans.o
 .sbss.decoder_config_arg
                0x000000001ff6a0b0        0x4 C:\Users\cmshe\AppData\Local\Temp\cwsl_A_sample.elf.eOOQKS.ltrans2.ltrans.o
 .sbss.decoder_ops
                0x000000001ff6a0b4        0x4 C:\Users\cmshe\AppData\Local\Temp\cwsl_A_sample.elf.eOOQKS.ltrans2.ltrans.o
 .sbss.first_flag.5231
                0x000000001ff6a0b8        0x4 C:\Users\cmshe\AppData\Local\Temp\cwsl_A_sample.elf.eOOQKS.ltrans2.ltrans.o
 .sbss.g_dma_translate_ok
                0x000000001ff6a0bc        0x8 C:\Users\cmshe\AppData\Local\Temp\cwsl_A_sample.elf.eOOQKS.ltrans2.ltrans.o
 .sbss.g_end_paly_callback
                0x000000001ff6a0c4        0x4 C:\Users\cmshe\AppData\Local\Temp\cwsl_A_sample.elf.eOOQKS.ltrans2.ltrans.o
 .sbss.get_data_state
                0x000000001ff6a0c8        0x1 C:\Users\cmshe\AppData\Local\Temp\cwsl_A_sample.elf.eOOQKS.ltrans2.ltrans.o
 *fill*         0x000000001ff6a0c9        0x3 
 .sbss.history_decoder_ops
                0x000000001ff6a0cc        0x4 C:\Users\cmshe\AppData\Local\Temp\cwsl_A_sample.elf.eOOQKS.ltrans2.ltrans.o
 .sbss.last_pcm_buffer.6510
                0x000000001ff6a0d0        0x4 C:\Users\cmshe\AppData\Local\Temp\cwsl_A_sample.elf.eOOQKS.ltrans2.ltrans.o
 .sbss.last_pcm_buffer_total_size.6509
                0x000000001ff6a0d4        0x4 C:\Users\cmshe\AppData\Local\Temp\cwsl_A_sample.elf.eOOQKS.ltrans2.ltrans.o
 .sbss.mp3_dec_handle
                0x000000001ff6a0d8        0x4 C:\Users\cmshe\AppData\Local\Temp\cwsl_A_sample.elf.eOOQKS.ltrans2.ltrans.o
 .sbss.no_use_size
                0x000000001ff6a0dc        0x4 C:\Users\cmshe\AppData\Local\Temp\cwsl_A_sample.elf.eOOQKS.ltrans2.ltrans.o
 .sbss.play_will_finish
                0x000000001ff6a0e0        0x1 C:\Users\cmshe\AppData\Local\Temp\cwsl_A_sample.elf.eOOQKS.ltrans2.ltrans.o
 *fill*         0x000000001ff6a0e1        0x3 
 .sbss.play_will_finish_curr_play_size
                0x000000001ff6a0e4        0x4 C:\Users\cmshe\AppData\Local\Temp\cwsl_A_sample.elf.eOOQKS.ltrans2.ltrans.o
 .sbss.play_will_finish_threshold_data_size
                0x000000001ff6a0e8        0x4 C:\Users\cmshe\AppData\Local\Temp\cwsl_A_sample.elf.eOOQKS.ltrans2.ltrans.o
 .sbss.pre_nChans.5992
                0x000000001ff6a0ec        0x4 C:\Users\cmshe\AppData\Local\Temp\cwsl_A_sample.elf.eOOQKS.ltrans2.ltrans.o
 .sbss.pre_sample_rate.5991
                0x000000001ff6a0f0        0x4 C:\Users\cmshe\AppData\Local\Temp\cwsl_A_sample.elf.eOOQKS.ltrans2.ltrans.o
 .sbss.pxCurrentTimerList
                0x000000001ff6a0f4        0x4 C:\Users\cmshe\AppData\Local\Temp\cwsl_A_sample.elf.eOOQKS.ltrans2.ltrans.o
 .sbss.pxEnd    0x000000001ff6a0f8        0x4 C:\Users\cmshe\AppData\Local\Temp\cwsl_A_sample.elf.eOOQKS.ltrans2.ltrans.o
 .sbss.pxOverflowTimerList
                0x000000001ff6a0fc        0x4 C:\Users\cmshe\AppData\Local\Temp\cwsl_A_sample.elf.eOOQKS.ltrans2.ltrans.o
 .sbss.temp_wave_read_size
                0x000000001ff6a100        0x4 C:\Users\cmshe\AppData\Local\Temp\cwsl_A_sample.elf.eOOQKS.ltrans2.ltrans.o
 .sbss.uxDeletedTasksWaitingCleanUp
                0x000000001ff6a104        0x4 C:\Users\cmshe\AppData\Local\Temp\cwsl_A_sample.elf.eOOQKS.ltrans2.ltrans.o
 .sbss.uxPendedTicks
                0x000000001ff6a108        0x4 C:\Users\cmshe\AppData\Local\Temp\cwsl_A_sample.elf.eOOQKS.ltrans2.ltrans.o
 .sbss.valid_flag
                0x000000001ff6a10c        0x1 C:\Users\cmshe\AppData\Local\Temp\cwsl_A_sample.elf.eOOQKS.ltrans2.ltrans.o
 *fill*         0x000000001ff6a10d        0x3 
 .sbss.wav_buf  0x000000001ff6a110        0x4 C:\Users\cmshe\AppData\Local\Temp\cwsl_A_sample.elf.eOOQKS.ltrans2.ltrans.o
 .sbss.xBlockAllocatedBit
                0x000000001ff6a114        0x4 C:\Users\cmshe\AppData\Local\Temp\cwsl_A_sample.elf.eOOQKS.ltrans2.ltrans.o
 .sbss.xLastTime.4367
                0x000000001ff6a118        0x4 C:\Users\cmshe\AppData\Local\Temp\cwsl_A_sample.elf.eOOQKS.ltrans2.ltrans.o
 .sbss.xNumOfOverflows
                0x000000001ff6a11c        0x4 C:\Users\cmshe\AppData\Local\Temp\cwsl_A_sample.elf.eOOQKS.ltrans2.ltrans.o
 .sbss.xStart   0x000000001ff6a120        0x8 C:\Users\cmshe\AppData\Local\Temp\cwsl_A_sample.elf.eOOQKS.ltrans2.ltrans.o
 .sbss.heapBytesRemaining
                0x000000001ff6a128        0x4 ../../../libs\libnewlib_port.a(sbrk.o)
 .sbss._global_atexit
                0x000000001ff6a12c        0x4 c:/riscv-nuclei-elf-gcc-9.2.0/gcc_fix_raissrc/bin/../lib/gcc/riscv-nuclei-elf/9.2.0/../../../../riscv-nuclei-elf/lib/rv32imafc/ilp32f\libg_nano.a(lib_a-__call_atexit.o)
                0x000000001ff6a12c                _global_atexit
 *(.gnu.linkonce.sb.*)
 *(.bss .bss.*)
 .bss.cm.lto_priv.0
                0x000000001ff6a130      0x3d4 C:\Users\cmshe\AppData\Local\Temp\cwsl_A_sample.elf.eOOQKS.ltrans0.ltrans.o
                0x000000001ff6a130                cm.lto_priv.0
 .bss.cmd_info_variable
                0x000000001ff6a504       0x34 C:\Users\cmshe\AppData\Local\Temp\cwsl_A_sample.elf.eOOQKS.ltrans0.ltrans.o
                0x000000001ff6a504                cmd_info_variable
 .bss.cwsl_manage
                0x000000001ff6a538       0x40 C:\Users\cmshe\AppData\Local\Temp\cwsl_A_sample.elf.eOOQKS.ltrans0.ltrans.o
                0x000000001ff6a538                cwsl_manage
 .bss.cwsl_tm_info.lto_priv.0
                0x000000001ff6a578      0x108 C:\Users\cmshe\AppData\Local\Temp\cwsl_A_sample.elf.eOOQKS.ltrans0.ltrans.o
                0x000000001ff6a578                cwsl_tm_info.lto_priv.0
 .bss.dst_tmp_buf
                0x000000001ff6a680       0x3c C:\Users\cmshe\AppData\Local\Temp\cwsl_A_sample.elf.eOOQKS.ltrans0.ltrans.o
 .bss.feat_data_send.3937
                0x000000001ff6a6bc       0x78 C:\Users\cmshe\AppData\Local\Temp\cwsl_A_sample.elf.eOOQKS.ltrans0.ltrans.o
 .bss.pxReadyTasksLists.lto_priv.0
                0x000000001ff6a734       0x78 C:\Users\cmshe\AppData\Local\Temp\cwsl_A_sample.elf.eOOQKS.ltrans0.ltrans.o
                0x000000001ff6a734                pxReadyTasksLists.lto_priv.0
 .bss.sg_asr_cmd.lto_priv.0
                0x000000001ff6a7ac       0x40 C:\Users\cmshe\AppData\Local\Temp\cwsl_A_sample.elf.eOOQKS.ltrans0.ltrans.o
                0x000000001ff6a7ac                sg_asr_cmd.lto_priv.0
 .bss.sg_cur_max_cmd.lto_priv.0
                0x000000001ff6a7ec       0x32 C:\Users\cmshe\AppData\Local\Temp\cwsl_A_sample.elf.eOOQKS.ltrans0.ltrans.o
                0x000000001ff6a7ec                sg_cur_max_cmd.lto_priv.0
 *fill*         0x000000001ff6a81e        0x2 
 .bss.sg_cur_words.lto_priv.0
                0x000000001ff6a820       0x64 C:\Users\cmshe\AppData\Local\Temp\cwsl_A_sample.elf.eOOQKS.ltrans0.ltrans.o
                0x000000001ff6a820                sg_cur_words.lto_priv.0
 .bss.sg_cwsl_buf
                0x000000001ff6a884       0x28 C:\Users\cmshe\AppData\Local\Temp\cwsl_A_sample.elf.eOOQKS.ltrans0.ltrans.o
                0x000000001ff6a884                sg_cwsl_buf
 .bss.sg_cwslreg_info
                0x000000001ff6a8ac        0xc C:\Users\cmshe\AppData\Local\Temp\cwsl_A_sample.elf.eOOQKS.ltrans0.ltrans.o
 .bss.sg_cwslword_tmp.lto_priv.0
                0x000000001ff6a8b8       0xe8 C:\Users\cmshe\AppData\Local\Temp\cwsl_A_sample.elf.eOOQKS.ltrans0.ltrans.o
                0x000000001ff6a8b8                sg_cwslword_tmp.lto_priv.0
 .bss.sg_cwslword_tmp_inner
                0x000000001ff6a9a0       0xe8 C:\Users\cmshe\AppData\Local\Temp\cwsl_A_sample.elf.eOOQKS.ltrans0.ltrans.o
 .bss.sg_mem_buf
                0x000000001ff6aa88       0x64 C:\Users\cmshe\AppData\Local\Temp\cwsl_A_sample.elf.eOOQKS.ltrans0.ltrans.o
 .bss.sg_result.lto_priv.0
                0x000000001ff6aaec       0x28 C:\Users\cmshe\AppData\Local\Temp\cwsl_A_sample.elf.eOOQKS.ltrans0.ltrans.o
                0x000000001ff6aaec                sg_result.lto_priv.0
 .bss.sg_src_silphone
                0x000000001ff6ab14        0xc C:\Users\cmshe\AppData\Local\Temp\cwsl_A_sample.elf.eOOQKS.ltrans0.ltrans.o
 .bss.sg_tpl_path
                0x000000001ff6ab20       0x38 C:\Users\cmshe\AppData\Local\Temp\cwsl_A_sample.elf.eOOQKS.ltrans0.ltrans.o
 .bss.sg_word_buf
                0x000000001ff6ab58       0x80 C:\Users\cmshe\AppData\Local\Temp\cwsl_A_sample.elf.eOOQKS.ltrans0.ltrans.o
 .bss.tmp_buf   0x000000001ff6abd8       0x3c C:\Users\cmshe\AppData\Local\Temp\cwsl_A_sample.elf.eOOQKS.ltrans0.ltrans.o
 .bss.xDelayedTaskList1.5214
                0x000000001ff6ac14       0x14 C:\Users\cmshe\AppData\Local\Temp\cwsl_A_sample.elf.eOOQKS.ltrans0.ltrans.o
 .bss.xDelayedTaskList2.5215
                0x000000001ff6ac28       0x14 C:\Users\cmshe\AppData\Local\Temp\cwsl_A_sample.elf.eOOQKS.ltrans0.ltrans.o
 .bss.xPendingReadyList.lto_priv.0
                0x000000001ff6ac3c       0x14 C:\Users\cmshe\AppData\Local\Temp\cwsl_A_sample.elf.eOOQKS.ltrans0.ltrans.o
                0x000000001ff6ac3c                xPendingReadyList.lto_priv.0
 .bss.xSuspendedTaskList.lto_priv.0
                0x000000001ff6ac50       0x14 C:\Users\cmshe\AppData\Local\Temp\cwsl_A_sample.elf.eOOQKS.ltrans0.ltrans.o
                0x000000001ff6ac50                xSuspendedTaskList.lto_priv.0
 .bss.xTasksWaitingTermination.lto_priv.0
                0x000000001ff6ac64       0x14 C:\Users\cmshe\AppData\Local\Temp\cwsl_A_sample.elf.eOOQKS.ltrans0.ltrans.o
                0x000000001ff6ac64                xTasksWaitingTermination.lto_priv.0
 .bss.cinv_mang_r.lto_priv.0
                0x000000001ff6ac78        0xc C:\Users\cmshe\AppData\Local\Temp\cwsl_A_sample.elf.eOOQKS.ltrans1.ltrans.o
                0x000000001ff6ac78                cinv_mang_r.lto_priv.0
 .bss.cinv_rd_io_buf.lto_priv.0
                0x000000001ff6ac84      0x100 C:\Users\cmshe\AppData\Local\Temp\cwsl_A_sample.elf.eOOQKS.ltrans1.ltrans.o
                0x000000001ff6ac84                cinv_rd_io_buf.lto_priv.0
 .bss.cmd_file_header
                0x000000001ff6ad84       0x19 C:\Users\cmshe\AppData\Local\Temp\cwsl_A_sample.elf.eOOQKS.ltrans1.ltrans.o
 *fill*         0x000000001ff6ad9d        0x3 
 .bss.decoder_para
                0x000000001ff6ada0        0xc C:\Users\cmshe\AppData\Local\Temp\cwsl_A_sample.elf.eOOQKS.ltrans1.ltrans.o
 .bss.error_id  0x000000001ff6adac        0xc C:\Users\cmshe\AppData\Local\Temp\cwsl_A_sample.elf.eOOQKS.ltrans1.ltrans.o
 .bss.g_gpio_callback_list_root
                0x000000001ff6adb8       0x30 C:\Users\cmshe\AppData\Local\Temp\cwsl_A_sample.elf.eOOQKS.ltrans1.ltrans.o
 .bss.g_model_parameter_info
                0x000000001ff6ade8       0x1c C:\Users\cmshe\AppData\Local\Temp\cwsl_A_sample.elf.eOOQKS.ltrans1.ltrans.o
 .bss.iic0_status
                0x000000001ff6ae04       0x28 C:\Users\cmshe\AppData\Local\Temp\cwsl_A_sample.elf.eOOQKS.ltrans1.ltrans.o
 .bss.model_header.lto_priv.0
                0x000000001ff6ae2c       0x1c C:\Users\cmshe\AppData\Local\Temp\cwsl_A_sample.elf.eOOQKS.ltrans1.ltrans.o
                0x000000001ff6ae2c                model_header.lto_priv.0
 .bss.nuclear_com_serve_irq_cal
                0x000000001ff6ae48       0x24 C:\Users\cmshe\AppData\Local\Temp\cwsl_A_sample.elf.eOOQKS.ltrans1.ltrans.o
 .bss.partition_table.lto_priv.0
                0x000000001ff6ae6c      0x116 C:\Users\cmshe\AppData\Local\Temp\cwsl_A_sample.elf.eOOQKS.ltrans1.ltrans.o
                0x000000001ff6ae6c                partition_table.lto_priv.0
 *fill*         0x000000001ff6af82        0x2 
 .bss.remote_call_module
                0x000000001ff6af84       0x28 C:\Users\cmshe\AppData\Local\Temp\cwsl_A_sample.elf.eOOQKS.ltrans1.ltrans.o
 .bss.rx_buffer
                0x000000001ff6afac       0x18 C:\Users\cmshe\AppData\Local\Temp\cwsl_A_sample.elf.eOOQKS.ltrans1.ltrans.o
 .bss.sg_init_tmp_str
                0x000000001ff6afc4       0x14 C:\Users\cmshe\AppData\Local\Temp\cwsl_A_sample.elf.eOOQKS.ltrans1.ltrans.o
 .bss.sg_voice_sil_flag
                0x000000001ff6afd8       0x28 C:\Users\cmshe\AppData\Local\Temp\cwsl_A_sample.elf.eOOQKS.ltrans1.ltrans.o
 .bss.xdata     0x000000001ff6b000       0x10 C:\Users\cmshe\AppData\Local\Temp\cwsl_A_sample.elf.eOOQKS.ltrans1.ltrans.o
 .bss.cinv_wr_io_buf
                0x000000001ff6b010      0x100 C:\Users\cmshe\AppData\Local\Temp\cwsl_A_sample.elf.eOOQKS.ltrans2.ltrans.o
 .bss.data_list
                0x000000001ff6b110        0xe C:\Users\cmshe\AppData\Local\Temp\cwsl_A_sample.elf.eOOQKS.ltrans2.ltrans.o
 *fill*         0x000000001ff6b11e        0x2 
 .bss.mp3FrameInfo
                0x000000001ff6b120       0x1c C:\Users\cmshe\AppData\Local\Temp\cwsl_A_sample.elf.eOOQKS.ltrans2.ltrans.o
 .bss.pcm_buf_no_cache
                0x000000001ff6b13c      0x900 C:\Users\cmshe\AppData\Local\Temp\cwsl_A_sample.elf.eOOQKS.ltrans2.ltrans.o
 .bss.printk_string
                0x000000001ff6ba3c      0x200 C:\Users\cmshe\AppData\Local\Temp\cwsl_A_sample.elf.eOOQKS.ltrans2.ltrans.o
 .bss.xActiveTimerList1.4413
                0x000000001ff6bc3c       0x14 C:\Users\cmshe\AppData\Local\Temp\cwsl_A_sample.elf.eOOQKS.ltrans2.ltrans.o
 .bss.xActiveTimerList2.4414
                0x000000001ff6bc50       0x14 C:\Users\cmshe\AppData\Local\Temp\cwsl_A_sample.elf.eOOQKS.ltrans2.ltrans.o
 .bss.xQueueRegistry
                0x000000001ff6bc64       0x50 C:\Users\cmshe\AppData\Local\Temp\cwsl_A_sample.elf.eOOQKS.ltrans2.ltrans.o
 .bss._global_atexit0
                0x000000001ff6bcb4       0x8c c:/riscv-nuclei-elf-gcc-9.2.0/gcc_fix_raissrc/bin/../lib/gcc/riscv-nuclei-elf/9.2.0/../../../../riscv-nuclei-elf/lib/rv32imafc/ilp32f\libg_nano.a(lib_a-__atexit.o)
 *(.gnu.linkonce.b.*)
 *(COMMON)
                0x000000001ff6bd40                . = ALIGN (0x4)
                0x000000001ff6bd40                . = ALIGN (0x8)
                0x000000001ff6bd40                PROVIDE (__bss_end = .)

.no_init        0x000000001ff6bd40        0x0
 *(.no_init)
                0x000000001ff6bd40                . = ALIGN (0x4)
                0x000000001ff6bd40                . = ALIGN (0x8)
                [!provide]                        PROVIDE (_end = .)
                [!provide]                        PROVIDE (end = .)

.stack          0x000000001ff6bd40      0xc00
                0x0000000000000c00                . = __stack_size
 *fill*         0x000000001ff6bd40      0xc00 
                0x000000001ff6c940                PROVIDE (_sp = .)

.sys_heap       0x000000001ff6c940     0xf000
                0x000000001ff6c940                PROVIDE (__FREERTOSHEAP_START = .)
                0x000000000000f000                . = SYS_HEAP_SIZE
 *fill*         0x000000001ff6c940     0xf000 
                0x000000001ff7b940                PROVIDE (__FREERTOSHEAP_END = .)

.heap_start     0x000000001ff7b940        0x0
                0x000000001ff7b940                PROVIDE (heap_start = .)

.heap_end       0x000000001ffd2000        0x0 load address 0x000000001ff7b940
                0x000000001ffd2000                PROVIDE (heap_end = .)
                0x000000001ffd2000                PROVIDE (__befor_os_int_sp = .)
                0x000000001ff51000                START_ADDR = SRAM_START_ADDR
                0x0000000000000000                LOAD_TYPE = 0x0
                0x0000000000000000                ITCM_EN = 0x0
                0x0000000000000000                STCM_EN = 0x0
                0x0000000000000000                ICACHE_EN = 0x0
                0x00000000ffffffff                ICACHE_START_ADDR = 0xffffffff
                0x00000000ffffffff                ICACHE_END_ADDR = 0xffffffff
                0x00000000ffffffff                ICACHE_ALIAS_ADDR = 0xffffffff
                0x0000000000000000                SCACHE_EN = 0x0
                0x00000000ffffffff                SCACHE_START_ADDR = 0xffffffff
                0x00000000ffffffff                SCACHE_END_ADDR = 0xffffffff
                0x00000000ffffffff                SCACHE_ALIAS_ADDR = 0xffffffff
OUTPUT(build/cwsl_A_sample.elf elf32-littleriscv)

.debug_info     0x0000000000000000    0x6c6b2
 .debug_info    0x0000000000000000     0xbc4a C:\Users\cmshe\AppData\Local\Temp\cwsl_A_sample.elf.eOOQKS.ltrans0.ltrans.o
 .debug_info    0x000000000000bc4a    0x1039c C:\Users\cmshe\AppData\Local\Temp\cwsl_A_sample.elf.eOOQKS.ltrans1.ltrans.o
 .debug_info    0x000000000001bfe6     0x546b C:\Users\cmshe\AppData\Local\Temp\cwsl_A_sample.elf.eOOQKS.ltrans2.ltrans.o
 .debug_info    0x0000000000021451     0x135d C:\Users\cmshe\AppData\Local\Temp\ccqaTf3A.debug.temp.o
                0x0000000000021451                ci130x_init.c.ec01b824
 .debug_info    0x00000000000227ae      0xa68 C:\Users\cmshe\AppData\Local\Temp\ccSSPpPA.debug.temp.o
                0x00000000000227ae                ci130x_it.c.0fa20896
 .debug_info    0x0000000000023216      0xa03 C:\Users\cmshe\AppData\Local\Temp\cckBMzBA.debug.temp.o
                0x0000000000023216                ci130x_system.c.e1210236
 .debug_info    0x0000000000023c19     0x1685 C:\Users\cmshe\AppData\Local\Temp\ccI16h9z.debug.temp.o
                0x0000000000023c19                platform_config.c.c71dd121
 .debug_info    0x000000000002529e      0xff7 C:\Users\cmshe\AppData\Local\Temp\cc6rr0Gz.debug.temp.o
                0x000000000002529e                ci130x_handlers.c.f26f6ff6
 .debug_info    0x0000000000026295      0x443 C:\Users\cmshe\AppData\Local\Temp\ccOUa3hz.debug.temp.o
                0x0000000000026295                debug_time_consuming.c.edd731f8
 .debug_info    0x00000000000266d8      0xf14 C:\Users\cmshe\AppData\Local\Temp\ccqu1Qkz.debug.temp.o
                0x00000000000266d8                event_groups.c.6fd38221
 .debug_info    0x00000000000275ec      0xb24 C:\Users\cmshe\AppData\Local\Temp\ccWSaLoz.debug.temp.o
                0x00000000000275ec                list.c.f6eccd0c
 .debug_info    0x0000000000028110     0x1eb3 C:\Users\cmshe\AppData\Local\Temp\ccs9lMez.debug.temp.o
                0x0000000000028110                queue.c.d28ec87b
 .debug_info    0x0000000000029fc3     0x2697 C:\Users\cmshe\AppData\Local\Temp\ccEnMGYy.debug.temp.o
                0x0000000000029fc3                tasks.c.c4a31963
 .debug_info    0x000000000002c65a     0x1285 C:\Users\cmshe\AppData\Local\Temp\ccgT5E4x.debug.temp.o
                0x000000000002c65a                timers.c.8ea00ac0
 .debug_info    0x000000000002d8df     0x1463 C:\Users\cmshe\AppData\Local\Temp\cc4cQ3ex.debug.temp.o
                0x000000000002d8df                heap_4.c.6f72ad2c
 .debug_info    0x000000000002ed42     0x144b C:\Users\cmshe\AppData\Local\Temp\ccIvymrw.debug.temp.o
                0x000000000002ed42                ci_log.c.d9b7609a
 .debug_info    0x000000000003018d      0xcde C:\Users\cmshe\AppData\Local\Temp\ccmOgFDv.debug.temp.o
                0x000000000003018d                FreeRTOS_CLI.c.b9343fc1
 .debug_info    0x0000000000030e6b      0xbb7 C:\Users\cmshe\AppData\Local\Temp\cc06YXPu.debug.temp.o
                0x0000000000030e6b                UARTCommandConsole.c.15d03738
 .debug_info    0x0000000000031a22      0xc8d C:\Users\cmshe\AppData\Local\Temp\ccSiT7Us.debug.temp.o
                0x0000000000031a22                Sample_CLI_commands.c.61cd4fef
 .debug_info    0x00000000000326af     0x1e2d C:\Users\cmshe\AppData\Local\Temp\ccOoQHXr.debug.temp.o
                0x00000000000326af                ci_flash_data_info.c.89d576c6
 .debug_info    0x00000000000344dc      0xd56 C:\Users\cmshe\AppData\Local\Temp\ccKuNh0q.debug.temp.o
                0x00000000000344dc                flash_control_inner_port.c.1ac7ed54
 .debug_info    0x0000000000035232     0x179a C:\Users\cmshe\AppData\Local\Temp\ccGAKR2p.debug.temp.o
                0x0000000000035232                audio_play_api.c.8f4ec6af
 .debug_info    0x00000000000369cc     0x218e C:\Users\cmshe\AppData\Local\Temp\ccCGHr5o.debug.temp.o
                0x00000000000369cc                audio_play_decoder.c.8390f534
 .debug_info    0x0000000000038b5a     0x2111 C:\Users\cmshe\AppData\Local\Temp\cc6Jgcls.debug.temp.o
                0x0000000000038b5a                audio_play_process.c.d753dc94
 .debug_info    0x000000000003ac6b      0xfc7 C:\Users\cmshe\AppData\Local\Temp\ccANPWAv.debug.temp.o
                0x000000000003ac6b                audio_play_os_port.c.32a67072
 .debug_info    0x000000000003bc32     0x15f2 C:\Users\cmshe\AppData\Local\Temp\cc4QoHQy.debug.temp.o
                0x000000000003bc32                audio_play_device.c.d7132329
 .debug_info    0x000000000003d224     0x1f12 C:\Users\cmshe\AppData\Local\Temp\ccyUXr6B.debug.temp.o
                0x000000000003d224                get_play_data.c.11e09dac
 .debug_info    0x000000000003f136      0x9ea C:\Users\cmshe\AppData\Local\Temp\ccUrqUaF.debug.temp.o
                0x000000000003f136                adpcmdec.c.aaea7206
 .debug_info    0x000000000003fb20      0xb34 C:\Users\cmshe\AppData\Local\Temp\ccgZSmfI.debug.temp.o
                0x000000000003fb20                adpcm.c.4eca03a4
 .debug_info    0x0000000000040654      0xb00 C:\Users\cmshe\AppData\Local\Temp\ccG8IcxU.debug.temp.o
                0x0000000000040654                flacdecoder.c.a847041a
 .debug_info    0x0000000000041154      0xe45 C:\Users\cmshe\AppData\Local\Temp\ccodE7F0.debug.temp.o
                0x0000000000041154                status_share.c.4a44f34b
 .debug_info    0x0000000000041f99     0x1dce C:\Users\cmshe\AppData\Local\Temp\ccKK6zK3.debug.temp.o
                0x0000000000041f99                ci_nvdata_manage.c.2ee1ecb8
 .debug_info    0x0000000000043d67      0xb22 C:\Users\cmshe\AppData\Local\Temp\cc6hz2O6.debug.temp.o
                0x0000000000043d67                ci_nvdata_port.c.48f32479
 .debug_info    0x0000000000044889     0x168a C:\Users\cmshe\AppData\Local\Temp\ccsP1uT9.debug.temp.o
                0x0000000000044889                command_file_reader.c.c75f18f4
 .debug_info    0x0000000000045f13     0x1b67 C:\Users\cmshe\AppData\Local\Temp\ccSYgNCc.debug.temp.o
                0x0000000000045f13                command_info.c.b9dc6a76
 .debug_info    0x0000000000047a7a     0x1238 C:\Users\cmshe\AppData\Local\Temp\ccWa5F5e.debug.temp.o
                0x0000000000047a7a                prompt_player.c.16ecc579
 .debug_info    0x0000000000048cb2     0x1643 C:\Users\cmshe\AppData\Local\Temp\cc0mTyyh.debug.temp.o
                0x0000000000048cb2                audio_in_manage_inner.c.222086e3
 .debug_info    0x000000000004a2f5      0x9c1 C:\Users\cmshe\AppData\Local\Temp\ccs9fL5j.debug.temp.o
                0x000000000004a2f5                asr_malloc_port.c.8b3128dc
 .debug_info    0x000000000004acb6      0xf80 C:\Users\cmshe\AppData\Local\Temp\ccqq87Zm.debug.temp.o
                0x000000000004acb6                asr_process_callback_decoder.c.75362c76
 .debug_info    0x000000000004bc36     0x23ff C:\Users\cmshe\AppData\Local\Temp\ccWUr1Xs.debug.temp.o
                0x000000000004bc36                codec_manager.c.7ec0e929
 .debug_info    0x000000000004e035      0xe91 C:\Users\cmshe\AppData\Local\Temp\ccmi2eJv.debug.temp.o
                0x000000000004e035                codec_manage_inner_port.c.04365670
 .debug_info    0x000000000004eec6      0xd88 C:\Users\cmshe\AppData\Local\Temp\ccEJfyRI.debug.temp.o
                0x000000000004eec6                ci130x_audio_pre_rslt_out.c.7bcc9b6c
 .debug_info    0x000000000004fc4e      0xf68 C:\Users\cmshe\AppData\Local\Temp\ccKIoFSK.debug.temp.o
                0x000000000004fc4e                ci130x_core_eclic.c.458dc628
 .debug_info    0x0000000000050bb6      0xafe C:\Users\cmshe\AppData\Local\Temp\cc8IVOfN.debug.temp.o
                0x0000000000050bb6                ci130x_core_timer.c.af5a6d8b
 .debug_info    0x00000000000516b4     0x1870 C:\Users\cmshe\AppData\Local\Temp\ccWolzHP.debug.temp.o
                0x00000000000516b4                ci130x_dma.c.53d537c2
 .debug_info    0x0000000000052f24     0x1d96 C:\Users\cmshe\AppData\Local\Temp\ccK4Kj9R.debug.temp.o
                0x0000000000052f24                ci130x_codec.c.9c384b99
 .debug_info    0x0000000000054cba      0xaed C:\Users\cmshe\AppData\Local\Temp\ccYBf3YY.debug.temp.o
                0x0000000000054cba                ci130x_iisdma.c.7f6dc78e
 .debug_info    0x00000000000557a7      0xa8d C:\Users\cmshe\AppData\Local\Temp\cccvfSt0.debug.temp.o
                0x00000000000557a7                ci130x_core_misc.c.a23982ce
 .debug_info    0x0000000000056234     0x1a0d C:\Users\cmshe\AppData\Local\Temp\ccGOKg31.debug.temp.o
                0x0000000000056234                ci130x_iis.c.40b412cd
 .debug_info    0x0000000000057c41      0x7af C:\Users\cmshe\AppData\Local\Temp\ccQHz7l3.debug.temp.o
                0x0000000000057c41                ci130x_adc.c.3ef64ac6
 .debug_info    0x00000000000583f0      0xf6b C:\Users\cmshe\AppData\Local\Temp\ccS0XUF4.debug.temp.o
                0x00000000000583f0                ci130x_gpio.c.1bc067c7
 .debug_info    0x000000000005935b     0x17fd C:\Users\cmshe\AppData\Local\Temp\cco7PA45.debug.temp.o
                0x000000000005935b                ci130x_iic.c.22daf887
 .debug_info    0x000000000005ab58     0x13cd C:\Users\cmshe\AppData\Local\Temp\ccQ7fahb.debug.temp.o
                0x000000000005ab58                ci130x_uart.c.2318c09e
 .debug_info    0x000000000005bf25      0xe35 C:\Users\cmshe\AppData\Local\Temp\cceyA0Wc.debug.temp.o
                0x000000000005bf25                ci130x_lowpower.c.013999b6
 .debug_info    0x000000000005cd5a      0xafa C:\Users\cmshe\AppData\Local\Temp\ccKsU1vi.debug.temp.o
                0x000000000005cd5a                ci130x_iwdg.c.f4d491a5
 .debug_info    0x000000000005d854     0x1ffc C:\Users\cmshe\AppData\Local\Temp\ccIlMQbo.debug.temp.o
                0x000000000005d854                ci130x_spiflash.c.a33381d0
 .debug_info    0x000000000005f850     0x1e56 C:\Users\cmshe\AppData\Local\Temp\cc8kmwIt.debug.temp.o
                0x000000000005f850                ci130x_dtrflash.c.9599fa1e
 .debug_info    0x00000000000616a6     0x15d5 C:\Users\cmshe\AppData\Local\Temp\ccOMw5Az.debug.temp.o
                0x00000000000616a6                board.c.59d34cd9
 .debug_info    0x0000000000062c7b      0xbd6 C:\Users\cmshe\AppData\Local\Temp\ccMbX5xF.debug.temp.o
                0x0000000000062c7b                board_default.c.e335aa2e
 .debug_info    0x0000000000063851       0xcd C:\Users\cmshe\AppData\Local\Temp\cc4YcxhL.debug.temp.o
                0x0000000000063851                dichotomy_find.c.9bea81ec
 .debug_info    0x000000000006391e      0x208 C:\Users\cmshe\AppData\Local\Temp\ccAHgX5Q.debug.temp.o
                0x000000000006391e                crc.c.8699dd35
 .debug_info    0x0000000000063b26     0x11bc C:\Users\cmshe\AppData\Local\Temp\ccSGY95V.debug.temp.o
                0x0000000000063b26                main.c.d565f3eb
 .debug_info    0x0000000000064ce2      0x982 C:\Users\cmshe\AppData\Local\Temp\ccwztEW0.debug.temp.o
                0x0000000000064ce2                system_hook.c.018b7a87
 .debug_info    0x0000000000065664     0x1568 C:\Users\cmshe\AppData\Local\Temp\ccGwyqL5.debug.temp.o
                0x0000000000065664                system_msg_deal.c.846a126a
 .debug_info    0x0000000000066bcc     0x1753 C:\Users\cmshe\AppData\Local\Temp\ccQtDcAa.debug.temp.o
                0x0000000000066bcc                user_msg_deal.c.2fec7d02
 .debug_info    0x000000000006831f      0xf69 C:\Users\cmshe\AppData\Local\Temp\cc0qIYof.debug.temp.o
                0x000000000006831f                ci_ssp_config.c.8858d4e9
 .debug_info    0x0000000000069288     0x13ff C:\Users\cmshe\AppData\Local\Temp\ccaoNKdk.debug.temp.o
                0x0000000000069288                cwsl_app_sample1.c.47a4d73f
 .debug_info    0x000000000006a687       0xd7 C:\Users\cmshe\AppData\Local\Temp\ccklSw2o.debug.temp.o
                0x000000000006a687                user_control.c.bdb906ab
 .debug_info    0x000000000006a75e       0x26 build/objs/ci130x_startup.o
 .debug_info    0x000000000006a784       0x26 c:/riscv-nuclei-elf-gcc-9.2.0/gcc_fix_raissrc/bin/../lib/gcc/riscv-nuclei-elf/9.2.0/rv32imafc/ilp32f\libgcc.a(save-restore.o)
 .debug_info    0x000000000006a7aa      0x28c c:/riscv-nuclei-elf-gcc-9.2.0/gcc_fix_raissrc/bin/../lib/gcc/riscv-nuclei-elf/9.2.0/rv32imafc/ilp32f\libgcc.a(gedf2.o)
 .debug_info    0x000000000006aa36      0x28c c:/riscv-nuclei-elf-gcc-9.2.0/gcc_fix_raissrc/bin/../lib/gcc/riscv-nuclei-elf/9.2.0/rv32imafc/ilp32f\libgcc.a(ledf2.o)
 .debug_info    0x000000000006acc2      0x2af c:/riscv-nuclei-elf-gcc-9.2.0/gcc_fix_raissrc/bin/../lib/gcc/riscv-nuclei-elf/9.2.0/rv32imafc/ilp32f\libgcc.a(extendsfdf2.o)
 .debug_info    0x000000000006af71      0xbd7 c:/riscv-nuclei-elf-gcc-9.2.0/gcc_fix_raissrc/bin/../lib/gcc/riscv-nuclei-elf/9.2.0/rv32imafc/ilp32f\libgcc.a(_clzsi2.o)
 .debug_info    0x000000000006bb48      0xb6a c:/riscv-nuclei-elf-gcc-9.2.0/gcc_fix_raissrc/bin/../lib/gcc/riscv-nuclei-elf/9.2.0/rv32imafc/ilp32f\libgcc.a(_clz.o)

.debug_abbrev   0x0000000000000000     0xc003
 .debug_abbrev  0x0000000000000000      0x81f C:\Users\cmshe\AppData\Local\Temp\cwsl_A_sample.elf.eOOQKS.ltrans0.ltrans.o
 .debug_abbrev  0x000000000000081f      0x882 C:\Users\cmshe\AppData\Local\Temp\cwsl_A_sample.elf.eOOQKS.ltrans1.ltrans.o
 .debug_abbrev  0x00000000000010a1      0x2f7 C:\Users\cmshe\AppData\Local\Temp\cwsl_A_sample.elf.eOOQKS.ltrans2.ltrans.o
 .debug_abbrev  0x0000000000001398      0x2b7 C:\Users\cmshe\AppData\Local\Temp\ccqaTf3A.debug.temp.o
 .debug_abbrev  0x000000000000164f      0x1e9 C:\Users\cmshe\AppData\Local\Temp\ccSSPpPA.debug.temp.o
 .debug_abbrev  0x0000000000001838      0x1ec C:\Users\cmshe\AppData\Local\Temp\cckBMzBA.debug.temp.o
 .debug_abbrev  0x0000000000001a24      0x31e C:\Users\cmshe\AppData\Local\Temp\ccI16h9z.debug.temp.o
 .debug_abbrev  0x0000000000001d42      0x266 C:\Users\cmshe\AppData\Local\Temp\cc6rr0Gz.debug.temp.o
 .debug_abbrev  0x0000000000001fa8      0x125 C:\Users\cmshe\AppData\Local\Temp\ccOUa3hz.debug.temp.o
 .debug_abbrev  0x00000000000020cd      0x25c C:\Users\cmshe\AppData\Local\Temp\ccqu1Qkz.debug.temp.o
 .debug_abbrev  0x0000000000002329      0x20f C:\Users\cmshe\AppData\Local\Temp\ccWSaLoz.debug.temp.o
 .debug_abbrev  0x0000000000002538      0x2ab C:\Users\cmshe\AppData\Local\Temp\ccs9lMez.debug.temp.o
 .debug_abbrev  0x00000000000027e3      0x2e2 C:\Users\cmshe\AppData\Local\Temp\ccEnMGYy.debug.temp.o
 .debug_abbrev  0x0000000000002ac5      0x25c C:\Users\cmshe\AppData\Local\Temp\ccgT5E4x.debug.temp.o
 .debug_abbrev  0x0000000000002d21      0x2d6 C:\Users\cmshe\AppData\Local\Temp\cc4cQ3ex.debug.temp.o
 .debug_abbrev  0x0000000000002ff7      0x2ba C:\Users\cmshe\AppData\Local\Temp\ccIvymrw.debug.temp.o
 .debug_abbrev  0x00000000000032b1      0x25a C:\Users\cmshe\AppData\Local\Temp\ccmOgFDv.debug.temp.o
 .debug_abbrev  0x000000000000350b      0x27e C:\Users\cmshe\AppData\Local\Temp\cc06YXPu.debug.temp.o
 .debug_abbrev  0x0000000000003789      0x265 C:\Users\cmshe\AppData\Local\Temp\ccSiT7Us.debug.temp.o
 .debug_abbrev  0x00000000000039ee      0x368 C:\Users\cmshe\AppData\Local\Temp\ccOoQHXr.debug.temp.o
 .debug_abbrev  0x0000000000003d56      0x26a C:\Users\cmshe\AppData\Local\Temp\ccKuNh0q.debug.temp.o
 .debug_abbrev  0x0000000000003fc0      0x30f C:\Users\cmshe\AppData\Local\Temp\ccGAKR2p.debug.temp.o
 .debug_abbrev  0x00000000000042cf      0x2fa C:\Users\cmshe\AppData\Local\Temp\ccCGHr5o.debug.temp.o
 .debug_abbrev  0x00000000000045c9      0x377 C:\Users\cmshe\AppData\Local\Temp\cc6Jgcls.debug.temp.o
 .debug_abbrev  0x0000000000004940      0x29a C:\Users\cmshe\AppData\Local\Temp\ccANPWAv.debug.temp.o
 .debug_abbrev  0x0000000000004bda      0x2db C:\Users\cmshe\AppData\Local\Temp\cc4QoHQy.debug.temp.o
 .debug_abbrev  0x0000000000004eb5      0x310 C:\Users\cmshe\AppData\Local\Temp\ccyUXr6B.debug.temp.o
 .debug_abbrev  0x00000000000051c5      0x203 C:\Users\cmshe\AppData\Local\Temp\ccUrqUaF.debug.temp.o
 .debug_abbrev  0x00000000000053c8      0x261 C:\Users\cmshe\AppData\Local\Temp\ccgZSmfI.debug.temp.o
 .debug_abbrev  0x0000000000005629      0x1d6 C:\Users\cmshe\AppData\Local\Temp\ccG8IcxU.debug.temp.o
 .debug_abbrev  0x00000000000057ff      0x274 C:\Users\cmshe\AppData\Local\Temp\ccodE7F0.debug.temp.o
 .debug_abbrev  0x0000000000005a73      0x352 C:\Users\cmshe\AppData\Local\Temp\ccKK6zK3.debug.temp.o
 .debug_abbrev  0x0000000000005dc5      0x242 C:\Users\cmshe\AppData\Local\Temp\cc6hz2O6.debug.temp.o
 .debug_abbrev  0x0000000000006007      0x2ce C:\Users\cmshe\AppData\Local\Temp\ccsP1uT9.debug.temp.o
 .debug_abbrev  0x00000000000062d5      0x310 C:\Users\cmshe\AppData\Local\Temp\ccSYgNCc.debug.temp.o
 .debug_abbrev  0x00000000000065e5      0x327 C:\Users\cmshe\AppData\Local\Temp\ccWa5F5e.debug.temp.o
 .debug_abbrev  0x000000000000690c      0x2b5 C:\Users\cmshe\AppData\Local\Temp\cc0mTyyh.debug.temp.o
 .debug_abbrev  0x0000000000006bc1      0x22d C:\Users\cmshe\AppData\Local\Temp\ccs9fL5j.debug.temp.o
 .debug_abbrev  0x0000000000006dee      0x25a C:\Users\cmshe\AppData\Local\Temp\ccqq87Zm.debug.temp.o
 .debug_abbrev  0x0000000000007048      0x3b1 C:\Users\cmshe\AppData\Local\Temp\ccWUr1Xs.debug.temp.o
 .debug_abbrev  0x00000000000073f9      0x294 C:\Users\cmshe\AppData\Local\Temp\ccmi2eJv.debug.temp.o
 .debug_abbrev  0x000000000000768d      0x26b C:\Users\cmshe\AppData\Local\Temp\ccEJfyRI.debug.temp.o
 .debug_abbrev  0x00000000000078f8      0x2be C:\Users\cmshe\AppData\Local\Temp\ccKIoFSK.debug.temp.o
 .debug_abbrev  0x0000000000007bb6      0x250 C:\Users\cmshe\AppData\Local\Temp\cc8IVOfN.debug.temp.o
 .debug_abbrev  0x0000000000007e06      0x304 C:\Users\cmshe\AppData\Local\Temp\ccWolzHP.debug.temp.o
 .debug_abbrev  0x000000000000810a      0x342 C:\Users\cmshe\AppData\Local\Temp\ccK4Kj9R.debug.temp.o
 .debug_abbrev  0x000000000000844c      0x171 C:\Users\cmshe\AppData\Local\Temp\ccYBf3YY.debug.temp.o
 .debug_abbrev  0x00000000000085bd      0x203 C:\Users\cmshe\AppData\Local\Temp\cccvfSt0.debug.temp.o
 .debug_abbrev  0x00000000000087c0      0x2e1 C:\Users\cmshe\AppData\Local\Temp\ccGOKg31.debug.temp.o
 .debug_abbrev  0x0000000000008aa1      0x191 C:\Users\cmshe\AppData\Local\Temp\ccQHz7l3.debug.temp.o
 .debug_abbrev  0x0000000000008c32      0x2bf C:\Users\cmshe\AppData\Local\Temp\ccS0XUF4.debug.temp.o
 .debug_abbrev  0x0000000000008ef1      0x301 C:\Users\cmshe\AppData\Local\Temp\cco7PA45.debug.temp.o
 .debug_abbrev  0x00000000000091f2      0x2d0 C:\Users\cmshe\AppData\Local\Temp\ccQ7fahb.debug.temp.o
 .debug_abbrev  0x00000000000094c2      0x32f C:\Users\cmshe\AppData\Local\Temp\cceyA0Wc.debug.temp.o
 .debug_abbrev  0x00000000000097f1      0x20c C:\Users\cmshe\AppData\Local\Temp\ccKsU1vi.debug.temp.o
 .debug_abbrev  0x00000000000099fd      0x314 C:\Users\cmshe\AppData\Local\Temp\ccIlMQbo.debug.temp.o
 .debug_abbrev  0x0000000000009d11      0x333 C:\Users\cmshe\AppData\Local\Temp\cc8kmwIt.debug.temp.o
 .debug_abbrev  0x000000000000a044      0x2c9 C:\Users\cmshe\AppData\Local\Temp\ccOMw5Az.debug.temp.o
 .debug_abbrev  0x000000000000a30d      0x236 C:\Users\cmshe\AppData\Local\Temp\ccMbX5xF.debug.temp.o
 .debug_abbrev  0x000000000000a543       0x82 C:\Users\cmshe\AppData\Local\Temp\cc4YcxhL.debug.temp.o
 .debug_abbrev  0x000000000000a5c5       0xc2 C:\Users\cmshe\AppData\Local\Temp\ccAHgX5Q.debug.temp.o
 .debug_abbrev  0x000000000000a687      0x2ca C:\Users\cmshe\AppData\Local\Temp\ccSGY95V.debug.temp.o
 .debug_abbrev  0x000000000000a951      0x1e4 C:\Users\cmshe\AppData\Local\Temp\ccwztEW0.debug.temp.o
 .debug_abbrev  0x000000000000ab35      0x353 C:\Users\cmshe\AppData\Local\Temp\ccGwyqL5.debug.temp.o
 .debug_abbrev  0x000000000000ae88      0x2d0 C:\Users\cmshe\AppData\Local\Temp\ccQtDcAa.debug.temp.o
 .debug_abbrev  0x000000000000b158      0x208 C:\Users\cmshe\AppData\Local\Temp\cc0qIYof.debug.temp.o
 .debug_abbrev  0x000000000000b360      0x337 C:\Users\cmshe\AppData\Local\Temp\ccaoNKdk.debug.temp.o
 .debug_abbrev  0x000000000000b697       0x88 C:\Users\cmshe\AppData\Local\Temp\ccklSw2o.debug.temp.o
 .debug_abbrev  0x000000000000b71f       0x14 build/objs/ci130x_startup.o
 .debug_abbrev  0x000000000000b733       0x14 c:/riscv-nuclei-elf-gcc-9.2.0/gcc_fix_raissrc/bin/../lib/gcc/riscv-nuclei-elf/9.2.0/rv32imafc/ilp32f\libgcc.a(save-restore.o)
 .debug_abbrev  0x000000000000b747      0x193 c:/riscv-nuclei-elf-gcc-9.2.0/gcc_fix_raissrc/bin/../lib/gcc/riscv-nuclei-elf/9.2.0/rv32imafc/ilp32f\libgcc.a(gedf2.o)
 .debug_abbrev  0x000000000000b8da      0x193 c:/riscv-nuclei-elf-gcc-9.2.0/gcc_fix_raissrc/bin/../lib/gcc/riscv-nuclei-elf/9.2.0/rv32imafc/ilp32f\libgcc.a(ledf2.o)
 .debug_abbrev  0x000000000000ba6d      0x16c c:/riscv-nuclei-elf-gcc-9.2.0/gcc_fix_raissrc/bin/../lib/gcc/riscv-nuclei-elf/9.2.0/rv32imafc/ilp32f\libgcc.a(extendsfdf2.o)
 .debug_abbrev  0x000000000000bbd9      0x242 c:/riscv-nuclei-elf-gcc-9.2.0/gcc_fix_raissrc/bin/../lib/gcc/riscv-nuclei-elf/9.2.0/rv32imafc/ilp32f\libgcc.a(_clzsi2.o)
 .debug_abbrev  0x000000000000be1b      0x1e8 c:/riscv-nuclei-elf-gcc-9.2.0/gcc_fix_raissrc/bin/../lib/gcc/riscv-nuclei-elf/9.2.0/rv32imafc/ilp32f\libgcc.a(_clz.o)

.debug_loc      0x0000000000000000    0x16ae3
 .debug_loc     0x0000000000000000     0x681b C:\Users\cmshe\AppData\Local\Temp\cwsl_A_sample.elf.eOOQKS.ltrans0.ltrans.o
 .debug_loc     0x000000000000681b     0xad3a C:\Users\cmshe\AppData\Local\Temp\cwsl_A_sample.elf.eOOQKS.ltrans1.ltrans.o
 .debug_loc     0x0000000000011555     0x5015 C:\Users\cmshe\AppData\Local\Temp\cwsl_A_sample.elf.eOOQKS.ltrans2.ltrans.o
 .debug_loc     0x000000000001656a      0x155 c:/riscv-nuclei-elf-gcc-9.2.0/gcc_fix_raissrc/bin/../lib/gcc/riscv-nuclei-elf/9.2.0/rv32imafc/ilp32f\libgcc.a(gedf2.o)
 .debug_loc     0x00000000000166bf      0x155 c:/riscv-nuclei-elf-gcc-9.2.0/gcc_fix_raissrc/bin/../lib/gcc/riscv-nuclei-elf/9.2.0/rv32imafc/ilp32f\libgcc.a(ledf2.o)
 .debug_loc     0x0000000000016814      0x264 c:/riscv-nuclei-elf-gcc-9.2.0/gcc_fix_raissrc/bin/../lib/gcc/riscv-nuclei-elf/9.2.0/rv32imafc/ilp32f\libgcc.a(extendsfdf2.o)
 .debug_loc     0x0000000000016a78       0x6b c:/riscv-nuclei-elf-gcc-9.2.0/gcc_fix_raissrc/bin/../lib/gcc/riscv-nuclei-elf/9.2.0/rv32imafc/ilp32f\libgcc.a(_clzsi2.o)

.debug_aranges  0x0000000000000000      0xd48
 .debug_aranges
                0x0000000000000000      0x458 C:\Users\cmshe\AppData\Local\Temp\cwsl_A_sample.elf.eOOQKS.ltrans0.ltrans.o
 .debug_aranges
                0x0000000000000458      0x550 C:\Users\cmshe\AppData\Local\Temp\cwsl_A_sample.elf.eOOQKS.ltrans1.ltrans.o
 .debug_aranges
                0x00000000000009a8      0x2c8 C:\Users\cmshe\AppData\Local\Temp\cwsl_A_sample.elf.eOOQKS.ltrans2.ltrans.o
 .debug_aranges
                0x0000000000000c70       0x20 build/objs/ci130x_startup.o
 .debug_aranges
                0x0000000000000c90       0x20 c:/riscv-nuclei-elf-gcc-9.2.0/gcc_fix_raissrc/bin/../lib/gcc/riscv-nuclei-elf/9.2.0/rv32imafc/ilp32f\libgcc.a(save-restore.o)
 .debug_aranges
                0x0000000000000cb0       0x20 c:/riscv-nuclei-elf-gcc-9.2.0/gcc_fix_raissrc/bin/../lib/gcc/riscv-nuclei-elf/9.2.0/rv32imafc/ilp32f\libgcc.a(gedf2.o)
 .debug_aranges
                0x0000000000000cd0       0x20 c:/riscv-nuclei-elf-gcc-9.2.0/gcc_fix_raissrc/bin/../lib/gcc/riscv-nuclei-elf/9.2.0/rv32imafc/ilp32f\libgcc.a(ledf2.o)
 .debug_aranges
                0x0000000000000cf0       0x20 c:/riscv-nuclei-elf-gcc-9.2.0/gcc_fix_raissrc/bin/../lib/gcc/riscv-nuclei-elf/9.2.0/rv32imafc/ilp32f\libgcc.a(extendsfdf2.o)
 .debug_aranges
                0x0000000000000d10       0x20 c:/riscv-nuclei-elf-gcc-9.2.0/gcc_fix_raissrc/bin/../lib/gcc/riscv-nuclei-elf/9.2.0/rv32imafc/ilp32f\libgcc.a(_clzsi2.o)
 .debug_aranges
                0x0000000000000d30       0x18 c:/riscv-nuclei-elf-gcc-9.2.0/gcc_fix_raissrc/bin/../lib/gcc/riscv-nuclei-elf/9.2.0/rv32imafc/ilp32f\libgcc.a(_clz.o)

.debug_ranges   0x0000000000000000     0x81b0
 .debug_ranges  0x0000000000000000     0x35f8 C:\Users\cmshe\AppData\Local\Temp\cwsl_A_sample.elf.eOOQKS.ltrans0.ltrans.o
 .debug_ranges  0x00000000000035f8     0x3970 C:\Users\cmshe\AppData\Local\Temp\cwsl_A_sample.elf.eOOQKS.ltrans1.ltrans.o
 .debug_ranges  0x0000000000006f68     0x1198 C:\Users\cmshe\AppData\Local\Temp\cwsl_A_sample.elf.eOOQKS.ltrans2.ltrans.o
 .debug_ranges  0x0000000000008100       0x38 c:/riscv-nuclei-elf-gcc-9.2.0/gcc_fix_raissrc/bin/../lib/gcc/riscv-nuclei-elf/9.2.0/rv32imafc/ilp32f\libgcc.a(gedf2.o)
 .debug_ranges  0x0000000000008138       0x38 c:/riscv-nuclei-elf-gcc-9.2.0/gcc_fix_raissrc/bin/../lib/gcc/riscv-nuclei-elf/9.2.0/rv32imafc/ilp32f\libgcc.a(ledf2.o)
 .debug_ranges  0x0000000000008170       0x20 c:/riscv-nuclei-elf-gcc-9.2.0/gcc_fix_raissrc/bin/../lib/gcc/riscv-nuclei-elf/9.2.0/rv32imafc/ilp32f\libgcc.a(extendsfdf2.o)
 .debug_ranges  0x0000000000008190       0x20 c:/riscv-nuclei-elf-gcc-9.2.0/gcc_fix_raissrc/bin/../lib/gcc/riscv-nuclei-elf/9.2.0/rv32imafc/ilp32f\libgcc.a(_clzsi2.o)

.debug_line     0x0000000000000000    0x364b9
 .debug_line    0x0000000000000000     0xe201 C:\Users\cmshe\AppData\Local\Temp\cwsl_A_sample.elf.eOOQKS.ltrans0.ltrans.o
 .debug_line    0x000000000000e201    0x12629 C:\Users\cmshe\AppData\Local\Temp\cwsl_A_sample.elf.eOOQKS.ltrans1.ltrans.o
 .debug_line    0x000000000002082a     0xb006 C:\Users\cmshe\AppData\Local\Temp\cwsl_A_sample.elf.eOOQKS.ltrans2.ltrans.o
 .debug_line    0x000000000002b830      0x245 C:\Users\cmshe\AppData\Local\Temp\ccqaTf3A.debug.temp.o
 .debug_line    0x000000000002ba75      0x167 C:\Users\cmshe\AppData\Local\Temp\ccSSPpPA.debug.temp.o
 .debug_line    0x000000000002bbdc      0x1e6 C:\Users\cmshe\AppData\Local\Temp\cckBMzBA.debug.temp.o
 .debug_line    0x000000000002bdc2      0x2b1 C:\Users\cmshe\AppData\Local\Temp\ccI16h9z.debug.temp.o
 .debug_line    0x000000000002c073      0x1df C:\Users\cmshe\AppData\Local\Temp\cc6rr0Gz.debug.temp.o
 .debug_line    0x000000000002c252      0x17e C:\Users\cmshe\AppData\Local\Temp\ccOUa3hz.debug.temp.o
 .debug_line    0x000000000002c3d0      0x280 C:\Users\cmshe\AppData\Local\Temp\ccqu1Qkz.debug.temp.o
 .debug_line    0x000000000002c650      0x266 C:\Users\cmshe\AppData\Local\Temp\ccWSaLoz.debug.temp.o
 .debug_line    0x000000000002c8b6      0x2a6 C:\Users\cmshe\AppData\Local\Temp\ccs9lMez.debug.temp.o
 .debug_line    0x000000000002cb5c      0x2a9 C:\Users\cmshe\AppData\Local\Temp\ccEnMGYy.debug.temp.o
 .debug_line    0x000000000002ce05      0x289 C:\Users\cmshe\AppData\Local\Temp\ccgT5E4x.debug.temp.o
 .debug_line    0x000000000002d08e      0x236 C:\Users\cmshe\AppData\Local\Temp\cc4cQ3ex.debug.temp.o
 .debug_line    0x000000000002d2c4      0x257 C:\Users\cmshe\AppData\Local\Temp\ccIvymrw.debug.temp.o
 .debug_line    0x000000000002d51b      0x200 C:\Users\cmshe\AppData\Local\Temp\ccmOgFDv.debug.temp.o
 .debug_line    0x000000000002d71b      0x260 C:\Users\cmshe\AppData\Local\Temp\cc06YXPu.debug.temp.o
 .debug_line    0x000000000002d97b      0x27e C:\Users\cmshe\AppData\Local\Temp\ccSiT7Us.debug.temp.o
 .debug_line    0x000000000002dbf9      0x318 C:\Users\cmshe\AppData\Local\Temp\ccOoQHXr.debug.temp.o
 .debug_line    0x000000000002df11      0x1e8 C:\Users\cmshe\AppData\Local\Temp\ccKuNh0q.debug.temp.o
 .debug_line    0x000000000002e0f9      0x265 C:\Users\cmshe\AppData\Local\Temp\ccGAKR2p.debug.temp.o
 .debug_line    0x000000000002e35e      0x338 C:\Users\cmshe\AppData\Local\Temp\ccCGHr5o.debug.temp.o
 .debug_line    0x000000000002e696      0x3c4 C:\Users\cmshe\AppData\Local\Temp\cc6Jgcls.debug.temp.o
 .debug_line    0x000000000002ea5a      0x24d C:\Users\cmshe\AppData\Local\Temp\ccANPWAv.debug.temp.o
 .debug_line    0x000000000002eca7      0x358 C:\Users\cmshe\AppData\Local\Temp\cc4QoHQy.debug.temp.o
 .debug_line    0x000000000002efff      0x2f4 C:\Users\cmshe\AppData\Local\Temp\ccyUXr6B.debug.temp.o
 .debug_line    0x000000000002f2f3      0x11a C:\Users\cmshe\AppData\Local\Temp\ccUrqUaF.debug.temp.o
 .debug_line    0x000000000002f40d      0x1e4 C:\Users\cmshe\AppData\Local\Temp\ccgZSmfI.debug.temp.o
 .debug_line    0x000000000002f5f1      0x13a C:\Users\cmshe\AppData\Local\Temp\ccG8IcxU.debug.temp.o
 .debug_line    0x000000000002f72b      0x1db C:\Users\cmshe\AppData\Local\Temp\ccodE7F0.debug.temp.o
 .debug_line    0x000000000002f906      0x258 C:\Users\cmshe\AppData\Local\Temp\ccKK6zK3.debug.temp.o
 .debug_line    0x000000000002fb5e      0x23d C:\Users\cmshe\AppData\Local\Temp\cc6hz2O6.debug.temp.o
 .debug_line    0x000000000002fd9b      0x235 C:\Users\cmshe\AppData\Local\Temp\ccsP1uT9.debug.temp.o
 .debug_line    0x000000000002ffd0      0x2d9 C:\Users\cmshe\AppData\Local\Temp\ccSYgNCc.debug.temp.o
 .debug_line    0x00000000000302a9      0x3bb C:\Users\cmshe\AppData\Local\Temp\ccWa5F5e.debug.temp.o
 .debug_line    0x0000000000030664      0x3a7 C:\Users\cmshe\AppData\Local\Temp\cc0mTyyh.debug.temp.o
 .debug_line    0x0000000000030a0b      0x18f C:\Users\cmshe\AppData\Local\Temp\ccs9fL5j.debug.temp.o
 .debug_line    0x0000000000030b9a      0x301 C:\Users\cmshe\AppData\Local\Temp\ccqq87Zm.debug.temp.o
 .debug_line    0x0000000000030e9b      0x35f C:\Users\cmshe\AppData\Local\Temp\ccWUr1Xs.debug.temp.o
 .debug_line    0x00000000000311fa      0x258 C:\Users\cmshe\AppData\Local\Temp\ccmi2eJv.debug.temp.o
 .debug_line    0x0000000000031452      0x2c2 C:\Users\cmshe\AppData\Local\Temp\ccEJfyRI.debug.temp.o
 .debug_line    0x0000000000031714      0x1f8 C:\Users\cmshe\AppData\Local\Temp\ccKIoFSK.debug.temp.o
 .debug_line    0x000000000003190c      0x1f8 C:\Users\cmshe\AppData\Local\Temp\cc8IVOfN.debug.temp.o
 .debug_line    0x0000000000031b04      0x1ec C:\Users\cmshe\AppData\Local\Temp\ccWolzHP.debug.temp.o
 .debug_line    0x0000000000031cf0      0x2b2 C:\Users\cmshe\AppData\Local\Temp\ccK4Kj9R.debug.temp.o
 .debug_line    0x0000000000031fa2      0x170 C:\Users\cmshe\AppData\Local\Temp\ccYBf3YY.debug.temp.o
 .debug_line    0x0000000000032112      0x1f7 C:\Users\cmshe\AppData\Local\Temp\cccvfSt0.debug.temp.o
 .debug_line    0x0000000000032309      0x251 C:\Users\cmshe\AppData\Local\Temp\ccGOKg31.debug.temp.o
 .debug_line    0x000000000003255a      0x16a C:\Users\cmshe\AppData\Local\Temp\ccQHz7l3.debug.temp.o
 .debug_line    0x00000000000326c4      0x21e C:\Users\cmshe\AppData\Local\Temp\ccS0XUF4.debug.temp.o
 .debug_line    0x00000000000328e2      0x23f C:\Users\cmshe\AppData\Local\Temp\cco7PA45.debug.temp.o
 .debug_line    0x0000000000032b21      0x1c0 C:\Users\cmshe\AppData\Local\Temp\ccQ7fahb.debug.temp.o
 .debug_line    0x0000000000032ce1      0x21b C:\Users\cmshe\AppData\Local\Temp\cceyA0Wc.debug.temp.o
 .debug_line    0x0000000000032efc      0x15b C:\Users\cmshe\AppData\Local\Temp\ccKsU1vi.debug.temp.o
 .debug_line    0x0000000000033057      0x298 C:\Users\cmshe\AppData\Local\Temp\ccIlMQbo.debug.temp.o
 .debug_line    0x00000000000332ef      0x283 C:\Users\cmshe\AppData\Local\Temp\cc8kmwIt.debug.temp.o
 .debug_line    0x0000000000033572      0x348 C:\Users\cmshe\AppData\Local\Temp\ccOMw5Az.debug.temp.o
 .debug_line    0x00000000000338ba      0x22b C:\Users\cmshe\AppData\Local\Temp\ccMbX5xF.debug.temp.o
 .debug_line    0x0000000000033ae5       0x55 C:\Users\cmshe\AppData\Local\Temp\cc4YcxhL.debug.temp.o
 .debug_line    0x0000000000033b3a       0xf1 C:\Users\cmshe\AppData\Local\Temp\ccAHgX5Q.debug.temp.o
 .debug_line    0x0000000000033c2b      0x3dd C:\Users\cmshe\AppData\Local\Temp\ccSGY95V.debug.temp.o
 .debug_line    0x0000000000034008      0x215 C:\Users\cmshe\AppData\Local\Temp\ccwztEW0.debug.temp.o
 .debug_line    0x000000000003421d      0x425 C:\Users\cmshe\AppData\Local\Temp\ccGwyqL5.debug.temp.o
 .debug_line    0x0000000000034642      0x353 C:\Users\cmshe\AppData\Local\Temp\ccQtDcAa.debug.temp.o
 .debug_line    0x0000000000034995      0x309 C:\Users\cmshe\AppData\Local\Temp\cc0qIYof.debug.temp.o
 .debug_line    0x0000000000034c9e      0x2cb C:\Users\cmshe\AppData\Local\Temp\ccaoNKdk.debug.temp.o
 .debug_line    0x0000000000034f69       0x8b C:\Users\cmshe\AppData\Local\Temp\ccklSw2o.debug.temp.o
 .debug_line    0x0000000000034ff4      0x1f0 build/objs/ci130x_startup.o
 .debug_line    0x00000000000351e4      0x19c c:/riscv-nuclei-elf-gcc-9.2.0/gcc_fix_raissrc/bin/../lib/gcc/riscv-nuclei-elf/9.2.0/rv32imafc/ilp32f\libgcc.a(save-restore.o)
 .debug_line    0x0000000000035380      0x377 c:/riscv-nuclei-elf-gcc-9.2.0/gcc_fix_raissrc/bin/../lib/gcc/riscv-nuclei-elf/9.2.0/rv32imafc/ilp32f\libgcc.a(gedf2.o)
 .debug_line    0x00000000000356f7      0x377 c:/riscv-nuclei-elf-gcc-9.2.0/gcc_fix_raissrc/bin/../lib/gcc/riscv-nuclei-elf/9.2.0/rv32imafc/ilp32f\libgcc.a(ledf2.o)
 .debug_line    0x0000000000035a6e      0x41f c:/riscv-nuclei-elf-gcc-9.2.0/gcc_fix_raissrc/bin/../lib/gcc/riscv-nuclei-elf/9.2.0/rv32imafc/ilp32f\libgcc.a(extendsfdf2.o)
 .debug_line    0x0000000000035e8d      0x35c c:/riscv-nuclei-elf-gcc-9.2.0/gcc_fix_raissrc/bin/../lib/gcc/riscv-nuclei-elf/9.2.0/rv32imafc/ilp32f\libgcc.a(_clzsi2.o)
 .debug_line    0x00000000000361e9      0x2d0 c:/riscv-nuclei-elf-gcc-9.2.0/gcc_fix_raissrc/bin/../lib/gcc/riscv-nuclei-elf/9.2.0/rv32imafc/ilp32f\libgcc.a(_clz.o)

.debug_str      0x0000000000000000    0x1725f
 .debug_str     0x0000000000000000     0x253d C:\Users\cmshe\AppData\Local\Temp\cwsl_A_sample.elf.eOOQKS.ltrans0.ltrans.o
                                       0x28f5 (size before relaxing)
 .debug_str     0x000000000000253d     0x1715 C:\Users\cmshe\AppData\Local\Temp\cwsl_A_sample.elf.eOOQKS.ltrans1.ltrans.o
                                       0x1e39 (size before relaxing)
 .debug_str     0x0000000000003c52      0x1dc C:\Users\cmshe\AppData\Local\Temp\cwsl_A_sample.elf.eOOQKS.ltrans2.ltrans.o
                                        0x640 (size before relaxing)
 .debug_str     0x0000000000003e2e      0xc8c C:\Users\cmshe\AppData\Local\Temp\ccqaTf3A.debug.temp.o
                                        0xe40 (size before relaxing)
 .debug_str     0x0000000000004aba      0x25e C:\Users\cmshe\AppData\Local\Temp\ccSSPpPA.debug.temp.o
                                        0x8a1 (size before relaxing)
 .debug_str     0x0000000000004d18       0x64 C:\Users\cmshe\AppData\Local\Temp\cckBMzBA.debug.temp.o
                                        0x693 (size before relaxing)
 .debug_str     0x0000000000004d7c      0x9fe C:\Users\cmshe\AppData\Local\Temp\ccI16h9z.debug.temp.o
                                       0x1110 (size before relaxing)
 .debug_str     0x000000000000577a      0x266 C:\Users\cmshe\AppData\Local\Temp\cc6rr0Gz.debug.temp.o
                                        0x913 (size before relaxing)
 .debug_str     0x00000000000059e0      0x314 C:\Users\cmshe\AppData\Local\Temp\ccOUa3hz.debug.temp.o
                                        0x589 (size before relaxing)
 .debug_str     0x0000000000005cf4      0x390 C:\Users\cmshe\AppData\Local\Temp\ccqu1Qkz.debug.temp.o
                                        0xa34 (size before relaxing)
 .debug_str     0x0000000000006084       0xb1 C:\Users\cmshe\AppData\Local\Temp\ccWSaLoz.debug.temp.o
                                        0x783 (size before relaxing)
 .debug_str     0x0000000000006135      0x601 C:\Users\cmshe\AppData\Local\Temp\ccs9lMez.debug.temp.o
                                       0x1215 (size before relaxing)
 .debug_str     0x0000000000006736      0xd8c C:\Users\cmshe\AppData\Local\Temp\ccEnMGYy.debug.temp.o
                                       0x1a0c (size before relaxing)
 .debug_str     0x00000000000074c2      0x514 C:\Users\cmshe\AppData\Local\Temp\ccgT5E4x.debug.temp.o
                                        0xcae (size before relaxing)
 .debug_str     0x00000000000079d6      0x23d C:\Users\cmshe\AppData\Local\Temp\cc4cQ3ex.debug.temp.o
                                        0xd16 (size before relaxing)
 .debug_str     0x0000000000007c13      0x23d C:\Users\cmshe\AppData\Local\Temp\ccIvymrw.debug.temp.o
                                        0xcf2 (size before relaxing)
 .debug_str     0x0000000000007e50      0x33d C:\Users\cmshe\AppData\Local\Temp\ccmOgFDv.debug.temp.o
                                        0x9b3 (size before relaxing)
 .debug_str     0x000000000000818d      0x202 C:\Users\cmshe\AppData\Local\Temp\cc06YXPu.debug.temp.o
                                        0x8a3 (size before relaxing)
 .debug_str     0x000000000000838f      0x152 C:\Users\cmshe\AppData\Local\Temp\ccSiT7Us.debug.temp.o
                                        0x8cb (size before relaxing)
 .debug_str     0x00000000000084e1      0x84e C:\Users\cmshe\AppData\Local\Temp\ccOoQHXr.debug.temp.o
                                       0x1772 (size before relaxing)
 .debug_str     0x0000000000008d2f     0x11ba C:\Users\cmshe\AppData\Local\Temp\ccKuNh0q.debug.temp.o
                                       0x186d (size before relaxing)
 .debug_str     0x0000000000009ee9      0x464 C:\Users\cmshe\AppData\Local\Temp\ccGAKR2p.debug.temp.o
                                       0x1046 (size before relaxing)
 .debug_str     0x000000000000a34d      0xb97 C:\Users\cmshe\AppData\Local\Temp\ccCGHr5o.debug.temp.o
                                       0x18ad (size before relaxing)
 .debug_str     0x000000000000aee4      0x7af C:\Users\cmshe\AppData\Local\Temp\cc6Jgcls.debug.temp.o
                                       0x1cad (size before relaxing)
 .debug_str     0x000000000000b693      0x48b C:\Users\cmshe\AppData\Local\Temp\ccANPWAv.debug.temp.o
                                        0xd06 (size before relaxing)
 .debug_str     0x000000000000bb1e      0x24c C:\Users\cmshe\AppData\Local\Temp\cc4QoHQy.debug.temp.o
                                       0x1032 (size before relaxing)
 .debug_str     0x000000000000bd6a      0x592 C:\Users\cmshe\AppData\Local\Temp\ccyUXr6B.debug.temp.o
                                       0x1573 (size before relaxing)
 .debug_str     0x000000000000c2fc       0x77 C:\Users\cmshe\AppData\Local\Temp\ccUrqUaF.debug.temp.o
                                        0x66a (size before relaxing)
 .debug_str     0x000000000000c373       0xef C:\Users\cmshe\AppData\Local\Temp\ccgZSmfI.debug.temp.o
                                        0x7d9 (size before relaxing)
 .debug_str     0x000000000000c462      0x2a1 C:\Users\cmshe\AppData\Local\Temp\ccG8IcxU.debug.temp.o
                                        0x6c4 (size before relaxing)
 .debug_str     0x000000000000c703       0x98 C:\Users\cmshe\AppData\Local\Temp\ccodE7F0.debug.temp.o
                                       0x1a80 (size before relaxing)
 .debug_str     0x000000000000c79b      0x600 C:\Users\cmshe\AppData\Local\Temp\ccKK6zK3.debug.temp.o
                                       0x1133 (size before relaxing)
 .debug_str     0x000000000000cd9b      0x16a C:\Users\cmshe\AppData\Local\Temp\cc6hz2O6.debug.temp.o
                                        0x807 (size before relaxing)
 .debug_str     0x000000000000cf05      0x429 C:\Users\cmshe\AppData\Local\Temp\ccsP1uT9.debug.temp.o
                                       0x1016 (size before relaxing)
 .debug_str     0x000000000000d32e      0x5dc C:\Users\cmshe\AppData\Local\Temp\ccSYgNCc.debug.temp.o
                                       0x126b (size before relaxing)
 .debug_str     0x000000000000d90a      0x31e C:\Users\cmshe\AppData\Local\Temp\ccWa5F5e.debug.temp.o
                                       0x1110 (size before relaxing)
 .debug_str     0x000000000000dc28      0x784 C:\Users\cmshe\AppData\Local\Temp\cc0mTyyh.debug.temp.o
                                       0x2388 (size before relaxing)
 .debug_str     0x000000000000e3ac       0x94 C:\Users\cmshe\AppData\Local\Temp\ccs9fL5j.debug.temp.o
                                        0x6a5 (size before relaxing)
 .debug_str     0x000000000000e440      0x112 C:\Users\cmshe\AppData\Local\Temp\ccqq87Zm.debug.temp.o
                                        0xf75 (size before relaxing)
 .debug_str     0x000000000000e552     0x135a C:\Users\cmshe\AppData\Local\Temp\ccWUr1Xs.debug.temp.o
                                       0x1f9d (size before relaxing)
 .debug_str     0x000000000000f8ac       0xbe C:\Users\cmshe\AppData\Local\Temp\ccmi2eJv.debug.temp.o
                                       0x1944 (size before relaxing)
 .debug_str     0x000000000000f96a      0x198 C:\Users\cmshe\AppData\Local\Temp\ccEJfyRI.debug.temp.o
                                        0xb0f (size before relaxing)
 .debug_str     0x000000000000fb02      0x37c C:\Users\cmshe\AppData\Local\Temp\ccKIoFSK.debug.temp.o
                                        0xa20 (size before relaxing)
 .debug_str     0x000000000000fe7e      0x164 C:\Users\cmshe\AppData\Local\Temp\cc8IVOfN.debug.temp.o
                                        0x7e9 (size before relaxing)
 .debug_str     0x000000000000ffe2      0xaf3 C:\Users\cmshe\AppData\Local\Temp\ccWolzHP.debug.temp.o
                                       0x1258 (size before relaxing)
 .debug_str     0x0000000000010ad5     0x17d4 C:\Users\cmshe\AppData\Local\Temp\ccK4Kj9R.debug.temp.o
                                       0x2553 (size before relaxing)
 .debug_str     0x00000000000122a9      0x473 C:\Users\cmshe\AppData\Local\Temp\ccYBf3YY.debug.temp.o
                                        0xb2a (size before relaxing)
 .debug_str     0x000000000001271c       0x76 C:\Users\cmshe\AppData\Local\Temp\cccvfSt0.debug.temp.o
                                        0x6db (size before relaxing)
 .debug_str     0x0000000000012792      0x497 C:\Users\cmshe\AppData\Local\Temp\ccGOKg31.debug.temp.o
                                       0x1282 (size before relaxing)
 .debug_str     0x0000000000012c29      0x51b C:\Users\cmshe\AppData\Local\Temp\ccQHz7l3.debug.temp.o
                                        0x851 (size before relaxing)
 .debug_str     0x0000000000013144      0x3e2 C:\Users\cmshe\AppData\Local\Temp\ccS0XUF4.debug.temp.o
                                        0xa58 (size before relaxing)
 .debug_str     0x0000000000013526      0x4ba C:\Users\cmshe\AppData\Local\Temp\cco7PA45.debug.temp.o
                                        0xd80 (size before relaxing)
 .debug_str     0x00000000000139e0      0x689 C:\Users\cmshe\AppData\Local\Temp\ccQ7fahb.debug.temp.o
                                       0x11b6 (size before relaxing)
 .debug_str     0x0000000000014069      0x277 C:\Users\cmshe\AppData\Local\Temp\cceyA0Wc.debug.temp.o
                                        0xb72 (size before relaxing)
 .debug_str     0x00000000000142e0      0x145 C:\Users\cmshe\AppData\Local\Temp\ccKsU1vi.debug.temp.o
                                        0x74d (size before relaxing)
 .debug_str     0x0000000000014425      0x922 C:\Users\cmshe\AppData\Local\Temp\ccIlMQbo.debug.temp.o
                                       0x177e (size before relaxing)
 .debug_str     0x0000000000014d47      0x474 C:\Users\cmshe\AppData\Local\Temp\cc8kmwIt.debug.temp.o
                                       0x13fa (size before relaxing)
 .debug_str     0x00000000000151bb      0x2fb C:\Users\cmshe\AppData\Local\Temp\ccOMw5Az.debug.temp.o
                                       0x13ec (size before relaxing)
 .debug_str     0x00000000000154b6       0xf9 C:\Users\cmshe\AppData\Local\Temp\ccMbX5xF.debug.temp.o
                                        0x86c (size before relaxing)
 .debug_str     0x00000000000155af       0x5e C:\Users\cmshe\AppData\Local\Temp\cc4YcxhL.debug.temp.o
                                        0x1e3 (size before relaxing)
 .debug_str     0x000000000001560d       0x40 C:\Users\cmshe\AppData\Local\Temp\ccAHgX5Q.debug.temp.o
                                        0x297 (size before relaxing)
 .debug_str     0x000000000001564d      0x158 C:\Users\cmshe\AppData\Local\Temp\ccSGY95V.debug.temp.o
                                        0xf96 (size before relaxing)
 .debug_str     0x00000000000157a5       0x77 C:\Users\cmshe\AppData\Local\Temp\ccwztEW0.debug.temp.o
                                        0x6a9 (size before relaxing)
 .debug_str     0x000000000001581c      0x4c6 C:\Users\cmshe\AppData\Local\Temp\ccGwyqL5.debug.temp.o
                                       0x1627 (size before relaxing)
 .debug_str     0x0000000000015ce2      0x336 C:\Users\cmshe\AppData\Local\Temp\ccQtDcAa.debug.temp.o
                                       0x1451 (size before relaxing)
 .debug_str     0x0000000000016018      0x4a5 C:\Users\cmshe\AppData\Local\Temp\cc0qIYof.debug.temp.o
                                        0xc43 (size before relaxing)
 .debug_str     0x00000000000164bd      0x733 C:\Users\cmshe\AppData\Local\Temp\ccaoNKdk.debug.temp.o
                                       0x139e (size before relaxing)
 .debug_str     0x0000000000016bf0       0x98 C:\Users\cmshe\AppData\Local\Temp\ccklSw2o.debug.temp.o
                                        0x292 (size before relaxing)
 .debug_str     0x0000000000016c88       0x80 build/objs/ci130x_startup.o
 .debug_str     0x0000000000016d08       0xdd c:/riscv-nuclei-elf-gcc-9.2.0/gcc_fix_raissrc/bin/../lib/gcc/riscv-nuclei-elf/9.2.0/rv32imafc/ilp32f\libgcc.a(save-restore.o)
                                         0xe9 (size before relaxing)
 .debug_str     0x0000000000016de5      0x199 c:/riscv-nuclei-elf-gcc-9.2.0/gcc_fix_raissrc/bin/../lib/gcc/riscv-nuclei-elf/9.2.0/rv32imafc/ilp32f\libgcc.a(gedf2.o)
                                        0x2af (size before relaxing)
 .debug_str     0x0000000000016f7e       0x53 c:/riscv-nuclei-elf-gcc-9.2.0/gcc_fix_raissrc/bin/../lib/gcc/riscv-nuclei-elf/9.2.0/rv32imafc/ilp32f\libgcc.a(ledf2.o)
                                        0x2af (size before relaxing)
 .debug_str     0x0000000000016fd1       0xb6 c:/riscv-nuclei-elf-gcc-9.2.0/gcc_fix_raissrc/bin/../lib/gcc/riscv-nuclei-elf/9.2.0/rv32imafc/ilp32f\libgcc.a(extendsfdf2.o)
                                        0x2ac (size before relaxing)
 .debug_str     0x0000000000017087      0x1d8 c:/riscv-nuclei-elf-gcc-9.2.0/gcc_fix_raissrc/bin/../lib/gcc/riscv-nuclei-elf/9.2.0/rv32imafc/ilp32f\libgcc.a(_clzsi2.o)
                                        0x80f (size before relaxing)
 .debug_str     0x000000000001725f      0x7f2 c:/riscv-nuclei-elf-gcc-9.2.0/gcc_fix_raissrc/bin/../lib/gcc/riscv-nuclei-elf/9.2.0/rv32imafc/ilp32f\libgcc.a(_clz.o)

.comment        0x0000000000000000       0x11
 .comment       0x0000000000000000       0x12 C:\Users\cmshe\AppData\Local\Temp\cwsl_A_sample.elf.eOOQKS.ltrans0.ltrans.o
 .comment       0x0000000000000000       0x12 C:\Users\cmshe\AppData\Local\Temp\cwsl_A_sample.elf.eOOQKS.ltrans1.ltrans.o
 .comment       0x0000000000000000       0x12 C:\Users\cmshe\AppData\Local\Temp\cwsl_A_sample.elf.eOOQKS.ltrans2.ltrans.o
 .comment       0x0000000000000000       0x11 ../../../libs\libnewlib_port.a(sbrk.o)
                                         0x12 (size before relaxing)
 .comment       0x0000000000000011       0x12 c:/riscv-nuclei-elf-gcc-9.2.0/gcc_fix_raissrc/bin/../lib/gcc/riscv-nuclei-elf/9.2.0/rv32imafc/ilp32f\libgcc.a(gedf2.o)
 .comment       0x0000000000000011       0x12 c:/riscv-nuclei-elf-gcc-9.2.0/gcc_fix_raissrc/bin/../lib/gcc/riscv-nuclei-elf/9.2.0/rv32imafc/ilp32f\libgcc.a(ledf2.o)
 .comment       0x0000000000000011       0x12 c:/riscv-nuclei-elf-gcc-9.2.0/gcc_fix_raissrc/bin/../lib/gcc/riscv-nuclei-elf/9.2.0/rv32imafc/ilp32f\libgcc.a(extendsfdf2.o)
 .comment       0x0000000000000011       0x12 c:/riscv-nuclei-elf-gcc-9.2.0/gcc_fix_raissrc/bin/../lib/gcc/riscv-nuclei-elf/9.2.0/rv32imafc/ilp32f\libgcc.a(_clzsi2.o)
 .comment       0x0000000000000011       0x12 c:/riscv-nuclei-elf-gcc-9.2.0/gcc_fix_raissrc/bin/../lib/gcc/riscv-nuclei-elf/9.2.0/rv32imafc/ilp32f\libgcc.a(_clz.o)
 .comment       0x0000000000000011       0x12 c:/riscv-nuclei-elf-gcc-9.2.0/gcc_fix_raissrc/bin/../lib/gcc/riscv-nuclei-elf/9.2.0/../../../../riscv-nuclei-elf/lib/rv32imafc/ilp32f\libg_nano.a(lib_a-atexit.o)
 .comment       0x0000000000000011       0x12 c:/riscv-nuclei-elf-gcc-9.2.0/gcc_fix_raissrc/bin/../lib/gcc/riscv-nuclei-elf/9.2.0/../../../../riscv-nuclei-elf/lib/rv32imafc/ilp32f\libg_nano.a(lib_a-exit.o)
 .comment       0x0000000000000011       0x12 c:/riscv-nuclei-elf-gcc-9.2.0/gcc_fix_raissrc/bin/../lib/gcc/riscv-nuclei-elf/9.2.0/../../../../riscv-nuclei-elf/lib/rv32imafc/ilp32f\libg_nano.a(lib_a-fini.o)
 .comment       0x0000000000000011       0x12 c:/riscv-nuclei-elf-gcc-9.2.0/gcc_fix_raissrc/bin/../lib/gcc/riscv-nuclei-elf/9.2.0/../../../../riscv-nuclei-elf/lib/rv32imafc/ilp32f\libg_nano.a(lib_a-impure.o)
 .comment       0x0000000000000011       0x12 c:/riscv-nuclei-elf-gcc-9.2.0/gcc_fix_raissrc/bin/../lib/gcc/riscv-nuclei-elf/9.2.0/../../../../riscv-nuclei-elf/lib/rv32imafc/ilp32f\libg_nano.a(lib_a-init.o)
 .comment       0x0000000000000011       0x12 c:/riscv-nuclei-elf-gcc-9.2.0/gcc_fix_raissrc/bin/../lib/gcc/riscv-nuclei-elf/9.2.0/../../../../riscv-nuclei-elf/lib/rv32imafc/ilp32f\libg_nano.a(lib_a-rand.o)
 .comment       0x0000000000000011       0x12 c:/riscv-nuclei-elf-gcc-9.2.0/gcc_fix_raissrc/bin/../lib/gcc/riscv-nuclei-elf/9.2.0/../../../../riscv-nuclei-elf/lib/rv32imafc/ilp32f\libg_nano.a(lib_a-__atexit.o)
 .comment       0x0000000000000011       0x12 c:/riscv-nuclei-elf-gcc-9.2.0/gcc_fix_raissrc/bin/../lib/gcc/riscv-nuclei-elf/9.2.0/../../../../riscv-nuclei-elf/lib/rv32imafc/ilp32f\libg_nano.a(lib_a-__call_atexit.o)
 .comment       0x0000000000000011       0x12 c:/riscv-nuclei-elf-gcc-9.2.0/gcc_fix_raissrc/bin/../lib/gcc/riscv-nuclei-elf/9.2.0/../../../../riscv-nuclei-elf/lib/rv32imafc/ilp32f\libg_nano.a(lib_a-strchr.o)
 .comment       0x0000000000000011       0x12 c:/riscv-nuclei-elf-gcc-9.2.0/gcc_fix_raissrc/bin/../lib/gcc/riscv-nuclei-elf/9.2.0/../../../../riscv-nuclei-elf/lib/rv32imafc/ilp32f\libgloss_nano.a(sys_exit.o)
 .comment       0x0000000000000011       0x12 c:/riscv-nuclei-elf-gcc-9.2.0/gcc_fix_raissrc/bin/../lib/gcc/riscv-nuclei-elf/9.2.0/../../../../riscv-nuclei-elf/lib/rv32imafc/ilp32f\libc_nano.a(lib_a-errno.o)

.riscv.attributes
                0x0000000000000000       0x30
 .riscv.attributes
                0x0000000000000000       0x30 C:\Users\cmshe\AppData\Local\Temp\cwsl_A_sample.elf.eOOQKS.ltrans0.ltrans.o
 .riscv.attributes
                0x0000000000000030       0x30 C:\Users\cmshe\AppData\Local\Temp\cwsl_A_sample.elf.eOOQKS.ltrans1.ltrans.o
 .riscv.attributes
                0x0000000000000060       0x30 C:\Users\cmshe\AppData\Local\Temp\cwsl_A_sample.elf.eOOQKS.ltrans2.ltrans.o
 .riscv.attributes
                0x0000000000000090       0x2e build/objs/ci130x_startup.o
 .riscv.attributes
                0x00000000000000be       0x30 ../../../libs\libnewlib_port.a(sbrk.o)
 .riscv.attributes
                0x00000000000000ee       0x2e ../../../libs\libfreertos_port.a(portasm.o)
 .riscv.attributes
                0x000000000000011c       0x2e c:/riscv-nuclei-elf-gcc-9.2.0/gcc_fix_raissrc/bin/../lib/gcc/riscv-nuclei-elf/9.2.0/rv32imafc/ilp32f\libgcc.a(save-restore.o)
 .riscv.attributes
                0x000000000000014a       0x30 c:/riscv-nuclei-elf-gcc-9.2.0/gcc_fix_raissrc/bin/../lib/gcc/riscv-nuclei-elf/9.2.0/rv32imafc/ilp32f\libgcc.a(gedf2.o)
 .riscv.attributes
                0x000000000000017a       0x30 c:/riscv-nuclei-elf-gcc-9.2.0/gcc_fix_raissrc/bin/../lib/gcc/riscv-nuclei-elf/9.2.0/rv32imafc/ilp32f\libgcc.a(ledf2.o)
 .riscv.attributes
                0x00000000000001aa       0x30 c:/riscv-nuclei-elf-gcc-9.2.0/gcc_fix_raissrc/bin/../lib/gcc/riscv-nuclei-elf/9.2.0/rv32imafc/ilp32f\libgcc.a(extendsfdf2.o)
 .riscv.attributes
                0x00000000000001da       0x30 c:/riscv-nuclei-elf-gcc-9.2.0/gcc_fix_raissrc/bin/../lib/gcc/riscv-nuclei-elf/9.2.0/rv32imafc/ilp32f\libgcc.a(_clzsi2.o)
 .riscv.attributes
                0x000000000000020a       0x30 c:/riscv-nuclei-elf-gcc-9.2.0/gcc_fix_raissrc/bin/../lib/gcc/riscv-nuclei-elf/9.2.0/rv32imafc/ilp32f\libgcc.a(_clz.o)
 .riscv.attributes
                0x000000000000023a       0x30 c:/riscv-nuclei-elf-gcc-9.2.0/gcc_fix_raissrc/bin/../lib/gcc/riscv-nuclei-elf/9.2.0/../../../../riscv-nuclei-elf/lib/rv32imafc/ilp32f\libg_nano.a(lib_a-atexit.o)
 .riscv.attributes
                0x000000000000026a       0x30 c:/riscv-nuclei-elf-gcc-9.2.0/gcc_fix_raissrc/bin/../lib/gcc/riscv-nuclei-elf/9.2.0/../../../../riscv-nuclei-elf/lib/rv32imafc/ilp32f\libg_nano.a(lib_a-exit.o)
 .riscv.attributes
                0x000000000000029a       0x30 c:/riscv-nuclei-elf-gcc-9.2.0/gcc_fix_raissrc/bin/../lib/gcc/riscv-nuclei-elf/9.2.0/../../../../riscv-nuclei-elf/lib/rv32imafc/ilp32f\libg_nano.a(lib_a-fini.o)
 .riscv.attributes
                0x00000000000002ca       0x30 c:/riscv-nuclei-elf-gcc-9.2.0/gcc_fix_raissrc/bin/../lib/gcc/riscv-nuclei-elf/9.2.0/../../../../riscv-nuclei-elf/lib/rv32imafc/ilp32f\libg_nano.a(lib_a-impure.o)
 .riscv.attributes
                0x00000000000002fa       0x30 c:/riscv-nuclei-elf-gcc-9.2.0/gcc_fix_raissrc/bin/../lib/gcc/riscv-nuclei-elf/9.2.0/../../../../riscv-nuclei-elf/lib/rv32imafc/ilp32f\libg_nano.a(lib_a-init.o)
 .riscv.attributes
                0x000000000000032a       0x30 c:/riscv-nuclei-elf-gcc-9.2.0/gcc_fix_raissrc/bin/../lib/gcc/riscv-nuclei-elf/9.2.0/../../../../riscv-nuclei-elf/lib/rv32imafc/ilp32f\libg_nano.a(lib_a-rand.o)
 .riscv.attributes
                0x000000000000035a       0x30 c:/riscv-nuclei-elf-gcc-9.2.0/gcc_fix_raissrc/bin/../lib/gcc/riscv-nuclei-elf/9.2.0/../../../../riscv-nuclei-elf/lib/rv32imafc/ilp32f\libg_nano.a(lib_a-__atexit.o)
 .riscv.attributes
                0x000000000000038a       0x30 c:/riscv-nuclei-elf-gcc-9.2.0/gcc_fix_raissrc/bin/../lib/gcc/riscv-nuclei-elf/9.2.0/../../../../riscv-nuclei-elf/lib/rv32imafc/ilp32f\libg_nano.a(lib_a-__call_atexit.o)
 .riscv.attributes
                0x00000000000003ba       0x30 c:/riscv-nuclei-elf-gcc-9.2.0/gcc_fix_raissrc/bin/../lib/gcc/riscv-nuclei-elf/9.2.0/../../../../riscv-nuclei-elf/lib/rv32imafc/ilp32f\libg_nano.a(lib_a-strchr.o)
 .riscv.attributes
                0x00000000000003ea       0x30 c:/riscv-nuclei-elf-gcc-9.2.0/gcc_fix_raissrc/bin/../lib/gcc/riscv-nuclei-elf/9.2.0/../../../../riscv-nuclei-elf/lib/rv32imafc/ilp32f\libgloss_nano.a(sys_exit.o)
 .riscv.attributes
                0x000000000000041a       0x30 c:/riscv-nuclei-elf-gcc-9.2.0/gcc_fix_raissrc/bin/../lib/gcc/riscv-nuclei-elf/9.2.0/../../../../riscv-nuclei-elf/lib/rv32imafc/ilp32f\libc_nano.a(lib_a-errno.o)

.debug_frame    0x0000000000000000     0x38b8
 .debug_frame   0x0000000000000000     0x13d0 C:\Users\cmshe\AppData\Local\Temp\cwsl_A_sample.elf.eOOQKS.ltrans0.ltrans.o
 .debug_frame   0x00000000000013d0     0x1688 C:\Users\cmshe\AppData\Local\Temp\cwsl_A_sample.elf.eOOQKS.ltrans1.ltrans.o
 .debug_frame   0x0000000000002a58      0xdc4 C:\Users\cmshe\AppData\Local\Temp\cwsl_A_sample.elf.eOOQKS.ltrans2.ltrans.o
 .debug_frame   0x000000000000381c       0x20 c:/riscv-nuclei-elf-gcc-9.2.0/gcc_fix_raissrc/bin/../lib/gcc/riscv-nuclei-elf/9.2.0/rv32imafc/ilp32f\libgcc.a(gedf2.o)
 .debug_frame   0x000000000000383c       0x20 c:/riscv-nuclei-elf-gcc-9.2.0/gcc_fix_raissrc/bin/../lib/gcc/riscv-nuclei-elf/9.2.0/rv32imafc/ilp32f\libgcc.a(ledf2.o)
 .debug_frame   0x000000000000385c       0x3c c:/riscv-nuclei-elf-gcc-9.2.0/gcc_fix_raissrc/bin/../lib/gcc/riscv-nuclei-elf/9.2.0/rv32imafc/ilp32f\libgcc.a(extendsfdf2.o)
 .debug_frame   0x0000000000003898       0x20 c:/riscv-nuclei-elf-gcc-9.2.0/gcc_fix_raissrc/bin/../lib/gcc/riscv-nuclei-elf/9.2.0/rv32imafc/ilp32f\libgcc.a(_clzsi2.o)
